
========================================================================

** ELF Header Information

    File Name: .\obj\template.axf

    Machine class: ELFCLASS32 (32-bit)
    Data encoding: ELFDATA2LSB (Little endian)
    Header version: EV_CURRENT (Current version)
    Operating System ABI: none
    ABI Version: 0
    File Type: ET_EXEC (Executable) (2)
    Machine: EM_ARM (ARM)

    Image Entry point: 0x00000169
    Flags: EF_ARM_HASENTRY + EF_ARM_ABI_FLOAT_SOFT (0x05000202)

    ARM ELF revision: 5 (ABI version 2)

    Conforms to Soft float procedure-call standard

    Built with
    Component: ARM Compiler 5.06 update 6 (build 750) Tool: armasm [4d35ec]
    Component: ARM Compiler 5.06 update 6 (build 750) Tool: armlink [4d35ed]

    Header size: 52 bytes (0x34)
    Program header entry size: 32 bytes (0x20)
    Section header entry size: 40 bytes (0x28)

    Program header entries: 1
    Section header entries: 16

    Program header offset: 245124 (0x0003bd84)
    Section header offset: 245156 (0x0003bda4)

    Section header string table index: 15

========================================================================

** Program header #0 (PT_LOAD) [PF_X + PF_W + PF_R + PF_ARM_ENTRY]
    Size : 20528 bytes (9468 bytes in file)
    Virtual address: 0x00000000 (Alignment 8)


========================================================================

** Section #1 'ER_RO' (SHT_PROGBITS) [SHF_ALLOC + SHF_EXECINSTR]
    Size   : 9328 bytes (alignment 4)
    Address: 0x00000000

    $d.realdata
    RESET
    __Vectors
        0x00000000:    20002bc0    .+.     DCD    536882112
        0x00000004:    00000169    i...    DCD    361
        0x00000008:    0000018f    ....    DCD    399
        0x0000000c:    000000d5    ....    DCD    213
        0x00000010:    00000000    ....    DCD    0
        0x00000014:    00000000    ....    DCD    0
        0x00000018:    00000000    ....    DCD    0
        0x0000001c:    00000000    ....    DCD    0
        0x00000020:    00000000    ....    DCD    0
        0x00000024:    00000000    ....    DCD    0
        0x00000028:    00000000    ....    DCD    0
        0x0000002c:    00000529    )...    DCD    1321
        0x00000030:    00000000    ....    DCD    0
        0x00000034:    00000000    ....    DCD    0
        0x00000038:    00000127    '...    DCD    295
        0x0000003c:    000005e5    ....    DCD    1509
        0x00000040:    00000199    ....    DCD    409
        0x00000044:    00000199    ....    DCD    409
        0x00000048:    00000199    ....    DCD    409
        0x0000004c:    00000199    ....    DCD    409
        0x00000050:    00000199    ....    DCD    409
        0x00000054:    00000199    ....    DCD    409
        0x00000058:    00000199    ....    DCD    409
        0x0000005c:    00000199    ....    DCD    409
        0x00000060:    00000199    ....    DCD    409
        0x00000064:    00000199    ....    DCD    409
        0x00000068:    00000199    ....    DCD    409
        0x0000006c:    000007b9    ....    DCD    1977
        0x00000070:    00000199    ....    DCD    409
        0x00000074:    00000199    ....    DCD    409
        0x00000078:    00000199    ....    DCD    409
        0x0000007c:    00000199    ....    DCD    409
        0x00000080:    00000199    ....    DCD    409
        0x00000084:    00000199    ....    DCD    409
        0x00000088:    00000199    ....    DCD    409
        0x0000008c:    00000199    ....    DCD    409
        0x00000090:    00000199    ....    DCD    409
        0x00000094:    00000199    ....    DCD    409
        0x00000098:    00000199    ....    DCD    409
        0x0000009c:    00000199    ....    DCD    409
        0x000000a0:    00000199    ....    DCD    409
        0x000000a4:    00000199    ....    DCD    409
        0x000000a8:    00000199    ....    DCD    409
        0x000000ac:    00000199    ....    DCD    409
        0x000000b0:    00000199    ....    DCD    409
        0x000000b4:    00000199    ....    DCD    409
        0x000000b8:    00000199    ....    DCD    409
        0x000000bc:    00000199    ....    DCD    409
    $t
    .ARM.Collect$$$$00000000
    .ARM.Collect$$$$00000001
    __main
    _main_stk
        0x000000c0:    4803        .H      LDR      r0,__lit__00000000 ; [0xd0] = 0x20002bc0
        0x000000c2:    4685        .F      MOV      sp,r0
    .ARM.Collect$$$$00000004
    _main_scatterload
        0x000000c4:    f000f8e8    ....    BL       __scatterload ; 0x298
    .ARM.Collect$$$$00000008
    .ARM.Collect$$$$0000000A
    .ARM.Collect$$$$0000000B
    __main_after_scatterload
    _main_clock
    _main_cpp_init
    _main_init
        0x000000c8:    4800        .H      LDR      r0,[pc,#0] ; [0xcc] = 0xec9
        0x000000ca:    4700        .G      BX       r0
    $d
        0x000000cc:    00000ec9    ....    DCD    3785
    .ARM.Collect$$$$00002712
    __lit__00000000
    .ARM.Collect$$$$0000000D
    .ARM.Collect$$$$0000000F
    __rt_final_cpp
    __rt_final_exit
        0x000000d0:    20002bc0    .+.     DCD    536882112
    $t
    .emb_text
    HardFault_Handler
        0x000000d4:    2004        .       MOVS     r0,#4
        0x000000d6:    4671        qF      MOV      r1,lr
        0x000000d8:    4208        .B      TST      r0,r1
        0x000000da:    d002        ..      BEQ      0xe2 ; HardFault_Handler + 14
        0x000000dc:    f3ef8009    ....    MRS      r0,PSP
        0x000000e0:    e001        ..      B        0xe6 ; HardFault_Handler + 18
        0x000000e2:    f3ef8008    ....    MRS      r0,MSP
        0x000000e6:    4671        qF      MOV      r1,lr
        0x000000e8:    4a00        .J      LDR      r2,[pc,#0] ; [0xec] = 0x501
        0x000000ea:    4710        .G      BX       r2
    $d
        0x000000ec:    00000501    ....    DCD    1281
    $t
    .emb_text
    __asm___6_port_c_39a90d8d__prvPortStartFirstTask
        0x000000f0:    4b08        .K      LDR      r3,[pc,#32] ; [0x114] = 0x20000020
        0x000000f2:    6819        .h      LDR      r1,[r3,#0]
        0x000000f4:    6808        .h      LDR      r0,[r1,#0]
        0x000000f6:    3020         0      ADDS     r0,r0,#0x20
        0x000000f8:    f3808809    ....    MSR      PSP,r0
        0x000000fc:    2002        .       MOVS     r0,#2
        0x000000fe:    f3808814    ....    MSR      CONTROL,r0
        0x00000102:    f3bf8f6f    ..o.    ISB      
        0x00000106:    bc3f        ?.      POP      {r0-r5}
        0x00000108:    46ae        .F      MOV      lr,r5
        0x0000010a:    bc08        ..      POP      {r3}
        0x0000010c:    bc04        ..      POP      {r2}
        0x0000010e:    b662        b.      CPSIE    i
        0x00000110:    4718        .G      BX       r3
    $d
        0x00000112:    0000        ..      DCW    0
        0x00000114:    20000020     ..     DCD    536870944
    $t
    ulSetInterruptMaskFromISR
        0x00000118:    f3ef8010    ....    MRS      r0,PRIMASK
        0x0000011c:    b672        r.      CPSID    i
        0x0000011e:    4770        pG      BX       lr
    vClearInterruptMaskFromISR
        0x00000120:    f3808810    ....    MSR      PRIMASK,r0
        0x00000124:    4770        pG      BX       lr
    PendSV_Handler
        0x00000126:    f3ef8009    ....    MRS      r0,PSP
        0x0000012a:    4b0e        .K      LDR      r3,[pc,#56] ; [0x164] = 0x20000020
        0x0000012c:    681a        .h      LDR      r2,[r3,#0]
        0x0000012e:    3820         8      SUBS     r0,r0,#0x20
        0x00000130:    6010        .`      STR      r0,[r2,#0]
        0x00000132:    c0f0        ..      STM      r0!,{r4-r7}
        0x00000134:    4644        DF      MOV      r4,r8
        0x00000136:    464d        MF      MOV      r5,r9
        0x00000138:    4656        VF      MOV      r6,r10
        0x0000013a:    465f        _F      MOV      r7,r11
        0x0000013c:    c0f0        ..      STM      r0!,{r4-r7}
        0x0000013e:    b508        ..      PUSH     {r3,lr}
        0x00000140:    b672        r.      CPSID    i
        0x00000142:    f001fd33    ..3.    BL       vTaskSwitchContext ; 0x1bac
        0x00000146:    b662        b.      CPSIE    i
        0x00000148:    bc0c        ..      POP      {r2,r3}
        0x0000014a:    6811        .h      LDR      r1,[r2,#0]
        0x0000014c:    6808        .h      LDR      r0,[r1,#0]
        0x0000014e:    3010        .0      ADDS     r0,r0,#0x10
        0x00000150:    c8f0        ..      LDM      r0!,{r4-r7}
        0x00000152:    46a0        .F      MOV      r8,r4
        0x00000154:    46a9        .F      MOV      r9,r5
        0x00000156:    46b2        .F      MOV      r10,r6
        0x00000158:    46bb        .F      MOV      r11,r7
        0x0000015a:    f3808809    ....    MSR      PSP,r0
        0x0000015e:    3820         8      SUBS     r0,r0,#0x20
        0x00000160:    c8f0        ..      LDM      r0!,{r4-r7}
        0x00000162:    4718        .G      BX       r3
    $d
        0x00000164:    20000020     ..     DCD    536870944
    $t
    .text
    Reset_Handler
        0x00000168:    480c        .H      LDR      r0,[pc,#48] ; [0x19c] = 0x40000100
        0x0000016a:    490d        .I      LDR      r1,[pc,#52] ; [0x1a0] = 0x59
        0x0000016c:    6001        .`      STR      r1,[r0,#0]
        0x0000016e:    490d        .I      LDR      r1,[pc,#52] ; [0x1a4] = 0x16
        0x00000170:    6001        .`      STR      r1,[r0,#0]
        0x00000172:    490d        .I      LDR      r1,[pc,#52] ; [0x1a8] = 0x88
        0x00000174:    6001        .`      STR      r1,[r0,#0]
        0x00000176:    4a0d        .J      LDR      r2,[pc,#52] ; [0x1ac] = 0x40000024
        0x00000178:    490d        .I      LDR      r1,[pc,#52] ; [0x1b0] = 0x5aa5
        0x0000017a:    6011        .`      STR      r1,[r2,#0]
        0x0000017c:    4a0d        .J      LDR      r2,[pc,#52] ; [0x1b4] = 0x40000280
        0x0000017e:    490e        .I      LDR      r1,[pc,#56] ; [0x1b8] = 0x1
        0x00000180:    6011        .`      STR      r1,[r2,#0]
        0x00000182:    2100        .!      MOVS     r1,#0
        0x00000184:    6001        .`      STR      r1,[r0,#0]
        0x00000186:    480d        .H      LDR      r0,[pc,#52] ; [0x1bc] = 0x69d
        0x00000188:    4780        .G      BLX      r0
        0x0000018a:    480d        .H      LDR      r0,[pc,#52] ; [0x1c0] = 0xc1
        0x0000018c:    4700        .G      BX       r0
    NMI_Handler
        0x0000018e:    e7fe        ..      B        NMI_Handler ; 0x18e
        0x00000190:    e7fe        ..      B        0x190 ; NMI_Handler + 2
        0x00000192:    e7fe        ..      B        0x192 ; NMI_Handler + 4
        0x00000194:    e7fe        ..      B        0x194 ; NMI_Handler + 6
        0x00000196:    e7fe        ..      B        0x196 ; NMI_Handler + 8
    Default_Handler
    ACMP01_IRQHandler
    ADC_IRQHandler
    BOD_IRQHandler
    CKFAIL_IRQHandler
    EINT024_IRQHandler
    EINT135_IRQHandler
    GPAB_IRQHandler
    GPCDEF_IRQHandler
    I2C0_IRQHandler
    I2C1_IRQHandler
    PDMA_IRQHandler
    PWM0_IRQHandler
    PWM1_IRQHandler
    PWRWU_IRQHandler
    SPI0_IRQHandler
    TMR0_IRQHandler
    TMR1_IRQHandler
    TMR2_IRQHandler
    UART02_IRQHandler
    UART1_IRQHandler
    USBD_IRQHandler
    USCI_IRQHandler
    WDT_IRQHandler
        0x00000198:    e7fe        ..      B        Default_Handler ; 0x198
    $d
        0x0000019a:    0000        ..      DCW    0
        0x0000019c:    40000100    ...@    DCD    1073742080
        0x000001a0:    00000059    Y...    DCD    89
        0x000001a4:    00000016    ....    DCD    22
        0x000001a8:    00000088    ....    DCD    136
        0x000001ac:    40000024    $..@    DCD    1073741860
        0x000001b0:    00005aa5    .Z..    DCD    23205
        0x000001b4:    40000280    ...@    DCD    1073742464
        0x000001b8:    00000001    ....    DCD    1
        0x000001bc:    0000069d    ....    DCD    1693
        0x000001c0:    000000c1    ....    DCD    193
    $t
    .text
    __aeabi_uidiv
    __aeabi_uidivmod
        0x000001c4:    b530        0.      PUSH     {r4,r5,lr}
        0x000001c6:    460b        .F      MOV      r3,r1
        0x000001c8:    4601        .F      MOV      r1,r0
        0x000001ca:    2000        .       MOVS     r0,#0
        0x000001cc:    2220         "      MOVS     r2,#0x20
        0x000001ce:    2401        .$      MOVS     r4,#1
        0x000001d0:    e009        ..      B        0x1e6 ; __aeabi_uidiv + 34
        0x000001d2:    460d        .F      MOV      r5,r1
        0x000001d4:    40d5        .@      LSRS     r5,r5,r2
        0x000001d6:    429d        .B      CMP      r5,r3
        0x000001d8:    d305        ..      BCC      0x1e6 ; __aeabi_uidiv + 34
        0x000001da:    461d        .F      MOV      r5,r3
        0x000001dc:    4095        .@      LSLS     r5,r5,r2
        0x000001de:    1b49        I.      SUBS     r1,r1,r5
        0x000001e0:    4625        %F      MOV      r5,r4
        0x000001e2:    4095        .@      LSLS     r5,r5,r2
        0x000001e4:    1940        @.      ADDS     r0,r0,r5
        0x000001e6:    4615        .F      MOV      r5,r2
        0x000001e8:    1e52        R.      SUBS     r2,r2,#1
        0x000001ea:    2d00        .-      CMP      r5,#0
        0x000001ec:    dcf1        ..      BGT      0x1d2 ; __aeabi_uidiv + 14
        0x000001ee:    bd30        0.      POP      {r4,r5,pc}
    .text
    __aeabi_memcpy
    __aeabi_memcpy4
    __aeabi_memcpy8
        0x000001f0:    4603        .F      MOV      r3,r0
        0x000001f2:    430b        .C      ORRS     r3,r3,r1
        0x000001f4:    079b        ..      LSLS     r3,r3,#30
        0x000001f6:    d003        ..      BEQ      0x200 ; __aeabi_memcpy + 16
        0x000001f8:    e009        ..      B        0x20e ; __aeabi_memcpy + 30
        0x000001fa:    c908        ..      LDM      r1!,{r3}
        0x000001fc:    1f12        ..      SUBS     r2,r2,#4
        0x000001fe:    c008        ..      STM      r0!,{r3}
        0x00000200:    2a04        .*      CMP      r2,#4
        0x00000202:    d2fa        ..      BCS      0x1fa ; __aeabi_memcpy + 10
        0x00000204:    e003        ..      B        0x20e ; __aeabi_memcpy + 30
        0x00000206:    780b        .x      LDRB     r3,[r1,#0]
        0x00000208:    7003        .p      STRB     r3,[r0,#0]
        0x0000020a:    1c40        @.      ADDS     r0,r0,#1
        0x0000020c:    1c49        I.      ADDS     r1,r1,#1
        0x0000020e:    1e52        R.      SUBS     r2,r2,#1
        0x00000210:    d2f9        ..      BCS      0x206 ; __aeabi_memcpy + 22
        0x00000212:    4770        pG      BX       lr
    .text
    __aeabi_memset
    __aeabi_memset4
    __aeabi_memset8
        0x00000214:    b2d2        ..      UXTB     r2,r2
        0x00000216:    e001        ..      B        0x21c ; __aeabi_memset + 8
        0x00000218:    7002        .p      STRB     r2,[r0,#0]
        0x0000021a:    1c40        @.      ADDS     r0,r0,#1
        0x0000021c:    1e49        I.      SUBS     r1,r1,#1
        0x0000021e:    d2fb        ..      BCS      0x218 ; __aeabi_memset + 4
        0x00000220:    4770        pG      BX       lr
    __aeabi_memclr
    __aeabi_memclr4
    __aeabi_memclr8
        0x00000222:    2200        ."      MOVS     r2,#0
        0x00000224:    e7f6        ..      B        __aeabi_memset ; 0x214
    _memset$wrapper
        0x00000226:    b510        ..      PUSH     {r4,lr}
        0x00000228:    4613        .F      MOV      r3,r2
        0x0000022a:    460a        .F      MOV      r2,r1
        0x0000022c:    4604        .F      MOV      r4,r0
        0x0000022e:    4619        .F      MOV      r1,r3
        0x00000230:    f7fffff0    ....    BL       __aeabi_memset ; 0x214
        0x00000234:    4620         F      MOV      r0,r4
        0x00000236:    bd10        ..      POP      {r4,pc}
    .text
    __aeabi_uldivmod
        0x00000238:    b5f0        ..      PUSH     {r4-r7,lr}
        0x0000023a:    b41f        ..      PUSH     {r0-r4}
        0x0000023c:    4606        .F      MOV      r6,r0
        0x0000023e:    2000        .       MOVS     r0,#0
        0x00000240:    b082        ..      SUB      sp,sp,#8
        0x00000242:    4605        .F      MOV      r5,r0
        0x00000244:    2440        @$      MOVS     r4,#0x40
        0x00000246:    9101        ..      STR      r1,[sp,#4]
        0x00000248:    9000        ..      STR      r0,[sp,#0]
        0x0000024a:    e01b        ..      B        0x284 ; __aeabi_uldivmod + 76
        0x0000024c:    9901        ..      LDR      r1,[sp,#4]
        0x0000024e:    4622        "F      MOV      r2,r4
        0x00000250:    460f        .F      MOV      r7,r1
        0x00000252:    4630        0F      MOV      r0,r6
        0x00000254:    f000f842    ..B.    BL       __aeabi_llsr ; 0x2dc
        0x00000258:    9a04        ..      LDR      r2,[sp,#0x10]
        0x0000025a:    9b05        ..      LDR      r3,[sp,#0x14]
        0x0000025c:    1a80        ..      SUBS     r0,r0,r2
        0x0000025e:    4199        .A      SBCS     r1,r1,r3
        0x00000260:    d310        ..      BCC      0x284 ; __aeabi_uldivmod + 76
        0x00000262:    4610        .F      MOV      r0,r2
        0x00000264:    4619        .F      MOV      r1,r3
        0x00000266:    4622        "F      MOV      r2,r4
        0x00000268:    f000f828    ..(.    BL       __aeabi_llsl ; 0x2bc
        0x0000026c:    1a36        6.      SUBS     r6,r6,r0
        0x0000026e:    418f        .A      SBCS     r7,r7,r1
        0x00000270:    9701        ..      STR      r7,[sp,#4]
        0x00000272:    4622        "F      MOV      r2,r4
        0x00000274:    2001        .       MOVS     r0,#1
        0x00000276:    2100        .!      MOVS     r1,#0
        0x00000278:    9f00        ..      LDR      r7,[sp,#0]
        0x0000027a:    f000f81f    ....    BL       __aeabi_llsl ; 0x2bc
        0x0000027e:    1838        8.      ADDS     r0,r7,r0
        0x00000280:    414d        MA      ADCS     r5,r5,r1
        0x00000282:    9000        ..      STR      r0,[sp,#0]
        0x00000284:    4620         F      MOV      r0,r4
        0x00000286:    1e64        d.      SUBS     r4,r4,#1
        0x00000288:    2800        .(      CMP      r0,#0
        0x0000028a:    dcdf        ..      BGT      0x24c ; __aeabi_uldivmod + 20
        0x0000028c:    9b01        ..      LDR      r3,[sp,#4]
        0x0000028e:    9800        ..      LDR      r0,[sp,#0]
        0x00000290:    4629        )F      MOV      r1,r5
        0x00000292:    4632        2F      MOV      r2,r6
        0x00000294:    b007        ..      ADD      sp,sp,#0x1c
        0x00000296:    bdf0        ..      POP      {r4-r7,pc}
    .text
    __scatterload
    __scatterload_rt2
        0x00000298:    4c06        .L      LDR      r4,[pc,#24] ; [0x2b4] = 0x2450
        0x0000029a:    2501        .%      MOVS     r5,#1
        0x0000029c:    4e06        .N      LDR      r6,[pc,#24] ; [0x2b8] = 0x2470
        0x0000029e:    e005        ..      B        0x2ac ; __scatterload + 20
        0x000002a0:    68e3        .h      LDR      r3,[r4,#0xc]
        0x000002a2:    cc07        ..      LDM      r4!,{r0-r2}
        0x000002a4:    432b        +C      ORRS     r3,r3,r5
        0x000002a6:    3c0c        .<      SUBS     r4,r4,#0xc
        0x000002a8:    4798        .G      BLX      r3
        0x000002aa:    3410        .4      ADDS     r4,r4,#0x10
        0x000002ac:    42b4        .B      CMP      r4,r6
        0x000002ae:    d3f7        ..      BCC      0x2a0 ; __scatterload + 8
        0x000002b0:    f7ffff0a    ....    BL       __main_after_scatterload ; 0xc8
    $d
        0x000002b4:    00002450    P$..    DCD    9296
        0x000002b8:    00002470    p$..    DCD    9328
    $t
    .text
    __aeabi_llsl
    _ll_shift_l
        0x000002bc:    b510        ..      PUSH     {r4,lr}
        0x000002be:    2a20         *      CMP      r2,#0x20
        0x000002c0:    db04        ..      BLT      0x2cc ; __aeabi_llsl + 16
        0x000002c2:    4601        .F      MOV      r1,r0
        0x000002c4:    3a20         :      SUBS     r2,r2,#0x20
        0x000002c6:    4091        .@      LSLS     r1,r1,r2
        0x000002c8:    2000        .       MOVS     r0,#0
        0x000002ca:    bd10        ..      POP      {r4,pc}
        0x000002cc:    4091        .@      LSLS     r1,r1,r2
        0x000002ce:    2320         #      MOVS     r3,#0x20
        0x000002d0:    1a9c        ..      SUBS     r4,r3,r2
        0x000002d2:    4603        .F      MOV      r3,r0
        0x000002d4:    40e3        .@      LSRS     r3,r3,r4
        0x000002d6:    4319        .C      ORRS     r1,r1,r3
        0x000002d8:    4090        .@      LSLS     r0,r0,r2
        0x000002da:    bd10        ..      POP      {r4,pc}
    .text
    __aeabi_llsr
    _ll_ushift_r
        0x000002dc:    b510        ..      PUSH     {r4,lr}
        0x000002de:    2a20         *      CMP      r2,#0x20
        0x000002e0:    db04        ..      BLT      0x2ec ; __aeabi_llsr + 16
        0x000002e2:    4608        .F      MOV      r0,r1
        0x000002e4:    3a20         :      SUBS     r2,r2,#0x20
        0x000002e6:    40d0        .@      LSRS     r0,r0,r2
        0x000002e8:    2100        .!      MOVS     r1,#0
        0x000002ea:    bd10        ..      POP      {r4,pc}
        0x000002ec:    460b        .F      MOV      r3,r1
        0x000002ee:    40d3        .@      LSRS     r3,r3,r2
        0x000002f0:    40d0        .@      LSRS     r0,r0,r2
        0x000002f2:    2420         $      MOVS     r4,#0x20
        0x000002f4:    1aa2        ..      SUBS     r2,r4,r2
        0x000002f6:    4091        .@      LSLS     r1,r1,r2
        0x000002f8:    4308        .C      ORRS     r0,r0,r1
        0x000002fa:    4619        .F      MOV      r1,r3
        0x000002fc:    bd10        ..      POP      {r4,pc}
        0x000002fe:    0000        ..      MOVS     r0,r0
    i.CLK_EnableModuleClock
    CLK_EnableModuleClock
        0x00000300:    b50e        ..      PUSH     {r1-r3,lr}
        0x00000302:    4909        .I      LDR      r1,[pc,#36] ; [0x328] = 0x2418
        0x00000304:    c90e        ..      LDM      r1,{r1-r3}
        0x00000306:    9100        ..      STR      r1,[sp,#0]
        0x00000308:    9201        ..      STR      r2,[sp,#4]
        0x0000030a:    0f81        ..      LSRS     r1,r0,#30
        0x0000030c:    008a        ..      LSLS     r2,r1,#2
        0x0000030e:    9302        ..      STR      r3,[sp,#8]
        0x00000310:    4669        iF      MOV      r1,sp
        0x00000312:    588a        .X      LDR      r2,[r1,r2]
        0x00000314:    4905        .I      LDR      r1,[pc,#20] ; [0x32c] = 0x40000200
        0x00000316:    1851        Q.      ADDS     r1,r2,r1
        0x00000318:    684a        Jh      LDR      r2,[r1,#4]
        0x0000031a:    06c3        ..      LSLS     r3,r0,#27
        0x0000031c:    0edb        ..      LSRS     r3,r3,#27
        0x0000031e:    2001        .       MOVS     r0,#1
        0x00000320:    4098        .@      LSLS     r0,r0,r3
        0x00000322:    4302        .C      ORRS     r2,r2,r0
        0x00000324:    604a        J`      STR      r2,[r1,#4]
        0x00000326:    bd0e        ..      POP      {r1-r3,pc}
    $d
        0x00000328:    00002418    .$..    DCD    9240
        0x0000032c:    40000200    ...@    DCD    1073742336
    $t
    i.CLK_EnableXtalRC
    CLK_EnableXtalRC
        0x00000330:    4902        .I      LDR      r1,[pc,#8] ; [0x33c] = 0x40000200
        0x00000332:    680a        .h      LDR      r2,[r1,#0]
        0x00000334:    4302        .C      ORRS     r2,r2,r0
        0x00000336:    600a        .`      STR      r2,[r1,#0]
        0x00000338:    4770        pG      BX       lr
    $d
        0x0000033a:    0000        ..      DCW    0
        0x0000033c:    40000200    ...@    DCD    1073742336
    $t
    i.CLK_GetCPUFreq
    CLK_GetCPUFreq
        0x00000340:    b510        ..      PUSH     {r4,lr}
        0x00000342:    f000f961    ..a.    BL       SystemCoreClockUpdate ; 0x608
        0x00000346:    4801        .H      LDR      r0,[pc,#4] ; [0x34c] = 0x20000000
        0x00000348:    6800        .h      LDR      r0,[r0,#0]
        0x0000034a:    bd10        ..      POP      {r4,pc}
    $d
        0x0000034c:    20000000    ...     DCD    536870912
    $t
    i.CLK_GetHXTFreq
    CLK_GetHXTFreq
        0x00000350:    4802        .H      LDR      r0,[pc,#8] ; [0x35c] = 0x40000200
        0x00000352:    6800        .h      LDR      r0,[r0,#0]
        0x00000354:    07c0        ..      LSLS     r0,r0,#31
        0x00000356:    d000        ..      BEQ      0x35a ; CLK_GetHXTFreq + 10
        0x00000358:    4801        .H      LDR      r0,[pc,#4] ; [0x360] = 0x1e84800
        0x0000035a:    4770        pG      BX       lr
    $d
        0x0000035c:    40000200    ...@    DCD    1073742336
        0x00000360:    01e84800    .H..    DCD    32000000
    $t
    i.CLK_GetLXTFreq
    CLK_GetLXTFreq
        0x00000364:    4804        .H      LDR      r0,[pc,#16] ; [0x378] = 0x40000200
        0x00000366:    6800        .h      LDR      r0,[r0,#0]
        0x00000368:    0780        ..      LSLS     r0,r0,#30
        0x0000036a:    d502        ..      BPL      0x372 ; CLK_GetLXTFreq + 14
        0x0000036c:    2001        .       MOVS     r0,#1
        0x0000036e:    03c0        ..      LSLS     r0,r0,#15
        0x00000370:    4770        pG      BX       lr
        0x00000372:    2000        .       MOVS     r0,#0
        0x00000374:    4770        pG      BX       lr
    $d
        0x00000376:    0000        ..      DCW    0
        0x00000378:    40000200    ...@    DCD    1073742336
    $t
    i.CLK_GetPCLK0Freq
    CLK_GetPCLK0Freq
        0x0000037c:    b510        ..      PUSH     {r4,lr}
        0x0000037e:    f000f943    ..C.    BL       SystemCoreClockUpdate ; 0x608
        0x00000382:    4804        .H      LDR      r0,[pc,#16] ; [0x394] = 0x40000200
        0x00000384:    6b40        @k      LDR      r0,[r0,#0x34]
        0x00000386:    0741        A.      LSLS     r1,r0,#29
        0x00000388:    4803        .H      LDR      r0,[pc,#12] ; [0x398] = 0x20000000
        0x0000038a:    0f49        I.      LSRS     r1,r1,#29
        0x0000038c:    6800        .h      LDR      r0,[r0,#0]
        0x0000038e:    40c8        .@      LSRS     r0,r0,r1
        0x00000390:    bd10        ..      POP      {r4,pc}
    $d
        0x00000392:    0000        ..      DCW    0
        0x00000394:    40000200    ...@    DCD    1073742336
        0x00000398:    20000000    ...     DCD    536870912
    $t
    i.CLK_GetPCLK1Freq
    CLK_GetPCLK1Freq
        0x0000039c:    b510        ..      PUSH     {r4,lr}
        0x0000039e:    f000f933    ..3.    BL       SystemCoreClockUpdate ; 0x608
        0x000003a2:    4804        .H      LDR      r0,[pc,#16] ; [0x3b4] = 0x40000200
        0x000003a4:    6b40        @k      LDR      r0,[r0,#0x34]
        0x000003a6:    0640        @.      LSLS     r0,r0,#25
        0x000003a8:    0f41        A.      LSRS     r1,r0,#29
        0x000003aa:    4803        .H      LDR      r0,[pc,#12] ; [0x3b8] = 0x20000000
        0x000003ac:    6800        .h      LDR      r0,[r0,#0]
        0x000003ae:    40c8        .@      LSRS     r0,r0,r1
        0x000003b0:    bd10        ..      POP      {r4,pc}
    $d
        0x000003b2:    0000        ..      DCW    0
        0x000003b4:    40000200    ...@    DCD    1073742336
        0x000003b8:    20000000    ...     DCD    536870912
    $t
    i.CLK_GetPLLClockFreq
    CLK_GetPLLClockFreq
        0x000003bc:    b508        ..      PUSH     {r3,lr}
        0x000003be:    a011        ..      ADR      r0,{pc}+0x46 ; 0x404
        0x000003c0:    6800        .h      LDR      r0,[r0,#0]
        0x000003c2:    4911        .I      LDR      r1,[pc,#68] ; [0x408] = 0x40000240
        0x000003c4:    9000        ..      STR      r0,[sp,#0]
        0x000003c6:    6809        .h      LDR      r1,[r1,#0]
        0x000003c8:    2000        .       MOVS     r0,#0
        0x000003ca:    2205        ."      MOVS     r2,#5
        0x000003cc:    0412        ..      LSLS     r2,r2,#16
        0x000003ce:    4211        .B      TST      r1,r2
        0x000003d0:    d116        ..      BNE      0x400 ; CLK_GetPLLClockFreq + 68
        0x000003d2:    0308        ..      LSLS     r0,r1,#12
        0x000003d4:    d501        ..      BPL      0x3da ; CLK_GetPLLClockFreq + 30
        0x000003d6:    480d        .H      LDR      r0,[pc,#52] ; [0x40c] = 0xb71b00
        0x000003d8:    e000        ..      B        0x3dc ; CLK_GetPLLClockFreq + 32
        0x000003da:    480d        .H      LDR      r0,[pc,#52] ; [0x410] = 0x1e84800
        0x000003dc:    038a        ..      LSLS     r2,r1,#14
        0x000003de:    d40f        ..      BMI      0x400 ; CLK_GetPLLClockFreq + 68
        0x000003e0:    040a        ..      LSLS     r2,r1,#16
        0x000003e2:    0f92        ..      LSRS     r2,r2,#30
        0x000003e4:    466b        kF      MOV      r3,sp
        0x000003e6:    5c9b        .\      LDRB     r3,[r3,r2]
        0x000003e8:    05ca        ..      LSLS     r2,r1,#23
        0x000003ea:    0489        ..      LSLS     r1,r1,#18
        0x000003ec:    0dd2        ..      LSRS     r2,r2,#23
        0x000003ee:    0ec9        ..      LSRS     r1,r1,#27
        0x000003f0:    1c89        ..      ADDS     r1,r1,#2
        0x000003f2:    0880        ..      LSRS     r0,r0,#2
        0x000003f4:    1c92        ..      ADDS     r2,r2,#2
        0x000003f6:    4359        YC      MULS     r1,r3,r1
        0x000003f8:    4350        PC      MULS     r0,r2,r0
        0x000003fa:    f7fffee3    ....    BL       __aeabi_uidiv ; 0x1c4
        0x000003fe:    0080        ..      LSLS     r0,r0,#2
        0x00000400:    bd08        ..      POP      {r3,pc}
    $d
        0x00000402:    0000        ..      DCW    0
        0x00000404:    04020201    ....    DCD    67240449
        0x00000408:    40000240    @..@    DCD    1073742400
        0x0000040c:    00b71b00    ....    DCD    12000000
        0x00000410:    01e84800    .H..    DCD    32000000
    $t
    i.CLK_SetHCLK
    CLK_SetHCLK
        0x00000414:    b5f3        ..      PUSH     {r0,r1,r4-r7,lr}
        0x00000416:    4812        .H      LDR      r0,[pc,#72] ; [0x460] = 0x40000240
        0x00000418:    b081        ..      SUB      sp,sp,#4
        0x0000041a:    6905        .i      LDR      r5,[r0,#0x10]
        0x0000041c:    460f        .F      MOV      r7,r1
        0x0000041e:    2010        .       MOVS     r0,#0x10
        0x00000420:    4c0f        .L      LDR      r4,[pc,#60] ; [0x460] = 0x40000240
        0x00000422:    4005        .@      ANDS     r5,r5,r0
        0x00000424:    3c40        @<      SUBS     r4,r4,#0x40
        0x00000426:    6820         h      LDR      r0,[r4,#0]
        0x00000428:    2604        .&      MOVS     r6,#4
        0x0000042a:    4330        0C      ORRS     r0,r0,r6
        0x0000042c:    6020         `      STR      r0,[r4,#0]
        0x0000042e:    2010        .       MOVS     r0,#0x10
        0x00000430:    f000f850    ..P.    BL       CLK_WaitClockReady ; 0x4d4
        0x00000434:    6920         i      LDR      r0,[r4,#0x10]
        0x00000436:    2107        .!      MOVS     r1,#7
        0x00000438:    4308        .C      ORRS     r0,r0,r1
        0x0000043a:    6120         a      STR      r0,[r4,#0x10]
        0x0000043c:    6a20         j      LDR      r0,[r4,#0x20]
        0x0000043e:    0900        ..      LSRS     r0,r0,#4
        0x00000440:    0100        ..      LSLS     r0,r0,#4
        0x00000442:    4338        8C      ORRS     r0,r0,r7
        0x00000444:    6220         b      STR      r0,[r4,#0x20]
        0x00000446:    6920         i      LDR      r0,[r4,#0x10]
        0x00000448:    4388        .C      BICS     r0,r0,r1
        0x0000044a:    9901        ..      LDR      r1,[sp,#4]
        0x0000044c:    4308        .C      ORRS     r0,r0,r1
        0x0000044e:    6120         a      STR      r0,[r4,#0x10]
        0x00000450:    f000f8da    ....    BL       SystemCoreClockUpdate ; 0x608
        0x00000454:    2d00        .-      CMP      r5,#0
        0x00000456:    d102        ..      BNE      0x45e ; CLK_SetHCLK + 74
        0x00000458:    6820         h      LDR      r0,[r4,#0]
        0x0000045a:    43b0        .C      BICS     r0,r0,r6
        0x0000045c:    6020         `      STR      r0,[r4,#0]
        0x0000045e:    bdfe        ..      POP      {r1-r7,pc}
    $d
        0x00000460:    40000240    @..@    DCD    1073742400
    $t
    i.CLK_SetModuleClock
    CLK_SetModuleClock
        0x00000464:    b5f0        ..      PUSH     {r4-r7,lr}
        0x00000466:    4b19        .K      LDR      r3,[pc,#100] ; [0x4cc] = 0x23f8
        0x00000468:    b088        ..      SUB      sp,sp,#0x20
        0x0000046a:    cbf0        ..      LDM      r3!,{r4-r7}
        0x0000046c:    9400        ..      STR      r4,[sp,#0]
        0x0000046e:    ac01        ..      ADD      r4,sp,#4
        0x00000470:    c4e0        ..      STM      r4!,{r5-r7}
        0x00000472:    cb78        x.      LDM      r3,{r3-r6}
        0x00000474:    af04        ..      ADD      r7,sp,#0x10
        0x00000476:    c778        x.      STM      r7!,{r3-r6}
        0x00000478:    0a84        ..      LSRS     r4,r0,#10
        0x0000047a:    0623        #.      LSLS     r3,r4,#24
        0x0000047c:    0e1b        ..      LSRS     r3,r3,#24
        0x0000047e:    d00e        ..      BEQ      0x49e ; CLK_SetModuleClock + 58
        0x00000480:    0303        ..      LSLS     r3,r0,#12
        0x00000482:    0f9b        ..      LSRS     r3,r3,#30
        0x00000484:    009b        ..      LSLS     r3,r3,#2
        0x00000486:    ad04        ..      ADD      r5,sp,#0x10
        0x00000488:    58eb        .X      LDR      r3,[r5,r3]
        0x0000048a:    4d11        .M      LDR      r5,[pc,#68] ; [0x4d0] = 0x40000220
        0x0000048c:    195b        [.      ADDS     r3,r3,r5
        0x0000048e:    b2e5        ..      UXTB     r5,r4
        0x00000490:    0584        ..      LSLS     r4,r0,#22
        0x00000492:    0ee4        ..      LSRS     r4,r4,#27
        0x00000494:    40a5        .@      LSLS     r5,r5,r4
        0x00000496:    681c        .h      LDR      r4,[r3,#0]
        0x00000498:    43ac        .C      BICS     r4,r4,r5
        0x0000049a:    4314        .C      ORRS     r4,r4,r2
        0x0000049c:    601c        .`      STR      r4,[r3,#0]
        0x0000049e:    0e42        B.      LSRS     r2,r0,#25
        0x000004a0:    0752        R.      LSLS     r2,r2,#29
        0x000004a2:    d010        ..      BEQ      0x4c6 ; CLK_SetModuleClock + 98
        0x000004a4:    0082        ..      LSLS     r2,r0,#2
        0x000004a6:    0f92        ..      LSRS     r2,r2,#30
        0x000004a8:    0092        ..      LSLS     r2,r2,#2
        0x000004aa:    466b        kF      MOV      r3,sp
        0x000004ac:    589a        .X      LDR      r2,[r3,r2]
        0x000004ae:    4b08        .K      LDR      r3,[pc,#32] ; [0x4d0] = 0x40000220
        0x000004b0:    3b10        .;      SUBS     r3,r3,#0x10
        0x000004b2:    18d2        ..      ADDS     r2,r2,r3
        0x000004b4:    0103        ..      LSLS     r3,r0,#4
        0x000004b6:    0f5b        [.      LSRS     r3,r3,#29
        0x000004b8:    01c0        ..      LSLS     r0,r0,#7
        0x000004ba:    0ec0        ..      LSRS     r0,r0,#27
        0x000004bc:    4083        .@      LSLS     r3,r3,r0
        0x000004be:    6810        .h      LDR      r0,[r2,#0]
        0x000004c0:    4398        .C      BICS     r0,r0,r3
        0x000004c2:    4308        .C      ORRS     r0,r0,r1
        0x000004c4:    6010        .`      STR      r0,[r2,#0]
        0x000004c6:    b008        ..      ADD      sp,sp,#0x20
        0x000004c8:    bdf0        ..      POP      {r4-r7,pc}
    $d
        0x000004ca:    0000        ..      DCW    0
        0x000004cc:    000023f8    .#..    DCD    9208
        0x000004d0:    40000220     ..@    DCD    1073742368
    $t
    i.CLK_WaitClockReady
    CLK_WaitClockReady
        0x000004d4:    b510        ..      PUSH     {r4,lr}
        0x000004d6:    4604        .F      MOV      r4,r0
        0x000004d8:    4907        .I      LDR      r1,[pc,#28] ; [0x4f8] = 0x20f580
        0x000004da:    4b08        .K      LDR      r3,[pc,#32] ; [0x4fc] = 0x40000240
        0x000004dc:    e005        ..      B        0x4ea ; CLK_WaitClockReady + 22
        0x000004de:    460a        .F      MOV      r2,r1
        0x000004e0:    1e49        I.      SUBS     r1,r1,#1
        0x000004e2:    2a00        .*      CMP      r2,#0
        0x000004e4:    dc01        ..      BGT      0x4ea ; CLK_WaitClockReady + 22
        0x000004e6:    2000        .       MOVS     r0,#0
        0x000004e8:    bd10        ..      POP      {r4,pc}
        0x000004ea:    691a        .i      LDR      r2,[r3,#0x10]
        0x000004ec:    4620         F      MOV      r0,r4
        0x000004ee:    4390        .C      BICS     r0,r0,r2
        0x000004f0:    d1f5        ..      BNE      0x4de ; CLK_WaitClockReady + 10
        0x000004f2:    2001        .       MOVS     r0,#1
        0x000004f4:    bd10        ..      POP      {r4,pc}
    $d
        0x000004f6:    0000        ..      DCW    0
        0x000004f8:    0020f580    .. .    DCD    2160000
        0x000004fc:    40000240    @..@    DCD    1073742400
    $t
    i.Hard_Fault_Handler
    Hard_Fault_Handler
    __tagsym$$used
        0x00000500:    4604        .F      MOV      r4,r0
        0x00000502:    a003        ..      ADR      r0,{pc}+0xe ; 0x510
        0x00000504:    f000fa74    ..t.    BL       __0printf$8 ; 0x9f0
        0x00000508:    4620         F      MOV      r0,r4
        0x0000050a:    f001f8db    ....    BL       stackDump ; 0x16c4
        0x0000050e:    e7fe        ..      B        0x50e ; Hard_Fault_Handler + 14
    $d
        0x00000510:    48206e49    In H    DCD    1210084937
        0x00000514:    20647261    ard     DCD    543453793
        0x00000518:    6c756146    Faul    DCD    1819631942
        0x0000051c:    61482074    t Ha    DCD    1632116852
        0x00000520:    656c646e    ndle    DCD    1701602414
        0x00000524:    00000a72    r...    DCD    2674
    $t
    i.SVC_Handler
    SVC_Handler
        0x00000528:    4770        pG      BX       lr
        0x0000052a:    0000        ..      MOVS     r0,r0
    i.SYS_Init
    SYS_Init
        0x0000052c:    b570        p.      PUSH     {r4-r6,lr}
        0x0000052e:    2059        Y       MOVS     r0,#0x59
        0x00000530:    4c1a        .L      LDR      r4,[pc,#104] ; [0x59c] = 0x40000100
        0x00000532:    2216        ."      MOVS     r2,#0x16
        0x00000534:    2188        .!      MOVS     r1,#0x88
        0x00000536:    6020         `      STR      r0,[r4,#0]
        0x00000538:    6022        "`      STR      r2,[r4,#0]
        0x0000053a:    6021        !`      STR      r1,[r4,#0]
        0x0000053c:    6823        #h      LDR      r3,[r4,#0]
        0x0000053e:    2b00        .+      CMP      r3,#0
        0x00000540:    d0f9        ..      BEQ      0x536 ; SYS_Init + 10
        0x00000542:    2004        .       MOVS     r0,#4
        0x00000544:    f7fffef4    ....    BL       CLK_EnableXtalRC ; 0x330
        0x00000548:    2010        .       MOVS     r0,#0x10
        0x0000054a:    f7ffffc3    ....    BL       CLK_WaitClockReady ; 0x4d4
        0x0000054e:    2100        .!      MOVS     r1,#0
        0x00000550:    2007        .       MOVS     r0,#7
        0x00000552:    f7ffff5f    .._.    BL       CLK_SetHCLK ; 0x414
        0x00000556:    4d12        .M      LDR      r5,[pc,#72] ; [0x5a0] = 0x5f803d10
        0x00000558:    4628        (F      MOV      r0,r5
        0x0000055a:    f7fffed1    ....    BL       CLK_EnableModuleClock ; 0x300
        0x0000055e:    2101        .!      MOVS     r1,#1
        0x00000560:    2200        ."      MOVS     r2,#0
        0x00000562:    0689        ..      LSLS     r1,r1,#26
        0x00000564:    4628        (F      MOV      r0,r5
        0x00000566:    f7ffff7d    ..}.    BL       CLK_SetModuleClock ; 0x464
        0x0000056a:    4d0e        .M      LDR      r5,[pc,#56] ; [0x5a4] = 0x5f400005
        0x0000056c:    4628        (F      MOV      r0,r5
        0x0000056e:    f7fffec7    ....    BL       CLK_EnableModuleClock ; 0x300
        0x00000572:    2101        .!      MOVS     r1,#1
        0x00000574:    2200        ."      MOVS     r2,#0
        0x00000576:    0549        I.      LSLS     r1,r1,#21
        0x00000578:    4628        (F      MOV      r0,r5
        0x0000057a:    f7ffff73    ..s.    BL       CLK_SetModuleClock ; 0x464
        0x0000057e:    f000f843    ..C.    BL       SystemCoreClockUpdate ; 0x608
        0x00000582:    07a8        ..      LSLS     r0,r5,#30
        0x00000584:    6bc1        .k      LDR      r1,[r0,#0x3c]
        0x00000586:    22ff        ."      MOVS     r2,#0xff
        0x00000588:    0412        ..      LSLS     r2,r2,#16
        0x0000058a:    4391        .C      BICS     r1,r1,r2
        0x0000058c:    2233        3"      MOVS     r2,#0x33
        0x0000058e:    0452        R.      LSLS     r2,r2,#17
        0x00000590:    1889        ..      ADDS     r1,r1,r2
        0x00000592:    63c1        .c      STR      r1,[r0,#0x3c]
        0x00000594:    2000        .       MOVS     r0,#0
        0x00000596:    6020         `      STR      r0,[r4,#0]
        0x00000598:    bd70        p.      POP      {r4-r6,pc}
    $d
        0x0000059a:    0000        ..      DCW    0
        0x0000059c:    40000100    ...@    DCD    1073742080
        0x000005a0:    5f803d10    .=._    DCD    1602239760
        0x000005a4:    5f400005    ..@_    DCD    1598029829
    $t
    i.SYS_ResetModule
    SYS_ResetModule
        0x000005a8:    2101        .!      MOVS     r1,#1
        0x000005aa:    0e02        ..      LSRS     r2,r0,#24
        0x000005ac:    0789        ..      LSLS     r1,r1,#30
        0x000005ae:    1851        Q.      ADDS     r1,r2,r1
        0x000005b0:    688b        .h      LDR      r3,[r1,#8]
        0x000005b2:    2201        ."      MOVS     r2,#1
        0x000005b4:    4082        .@      LSLS     r2,r2,r0
        0x000005b6:    4313        .C      ORRS     r3,r3,r2
        0x000005b8:    608b        .`      STR      r3,[r1,#8]
        0x000005ba:    6888        .h      LDR      r0,[r1,#8]
        0x000005bc:    4390        .C      BICS     r0,r0,r2
        0x000005be:    6088        .`      STR      r0,[r1,#8]
        0x000005c0:    4770        pG      BX       lr
        0x000005c2:    0000        ..      MOVS     r0,r0
    i.SendChar
    SendChar
        0x000005c4:    4906        .I      LDR      r1,[pc,#24] ; [0x5e0] = 0x40070000
        0x000005c6:    698a        .i      LDR      r2,[r1,#0x18]
        0x000005c8:    0212        ..      LSLS     r2,r2,#8
        0x000005ca:    d4fc        ..      BMI      0x5c6 ; SendChar + 2
        0x000005cc:    6008        .`      STR      r0,[r1,#0]
        0x000005ce:    280a        .(      CMP      r0,#0xa
        0x000005d0:    d104        ..      BNE      0x5dc ; SendChar + 24
        0x000005d2:    6988        .i      LDR      r0,[r1,#0x18]
        0x000005d4:    0200        ..      LSLS     r0,r0,#8
        0x000005d6:    d4fc        ..      BMI      0x5d2 ; SendChar + 14
        0x000005d8:    200d        .       MOVS     r0,#0xd
        0x000005da:    6008        .`      STR      r0,[r1,#0]
        0x000005dc:    4770        pG      BX       lr
    $d
        0x000005de:    0000        ..      DCW    0
        0x000005e0:    40070000    ...@    DCD    1074200576
    $t
    i.SysTick_Handler
    SysTick_Handler
        0x000005e4:    b510        ..      PUSH     {r4,lr}
        0x000005e6:    f7fffd97    ....    BL       ulSetInterruptMaskFromISR ; 0x118
        0x000005ea:    4604        .F      MOV      r4,r0
        0x000005ec:    f001fd6a    ..j.    BL       xTaskIncrementTick ; 0x20c4
        0x000005f0:    2800        .(      CMP      r0,#0
        0x000005f2:    d003        ..      BEQ      0x5fc ; SysTick_Handler + 24
        0x000005f4:    2001        .       MOVS     r0,#1
        0x000005f6:    4903        .I      LDR      r1,[pc,#12] ; [0x604] = 0xe000ed00
        0x000005f8:    0700        ..      LSLS     r0,r0,#28
        0x000005fa:    6048        H`      STR      r0,[r1,#4]
        0x000005fc:    4620         F      MOV      r0,r4
        0x000005fe:    f7fffd8f    ....    BL       vClearInterruptMaskFromISR ; 0x120
        0x00000602:    bd10        ..      POP      {r4,pc}
    $d
        0x00000604:    e000ed00    ....    DCD    3758157056
    $t
    i.SystemCoreClockUpdate
    SystemCoreClockUpdate
        0x00000608:    b5f8        ..      PUSH     {r3-r7,lr}
        0x0000060a:    4d1d        .M      LDR      r5,[pc,#116] ; [0x680] = 0x40000200
        0x0000060c:    6928        (i      LDR      r0,[r5,#0x10]
        0x0000060e:    491c        .I      LDR      r1,[pc,#112] ; [0x680] = 0x40000200
        0x00000610:    0744        D.      LSLS     r4,r0,#29
        0x00000612:    a01c        ..      ADR      r0,{pc}+0x72 ; 0x684
        0x00000614:    6800        .h      LDR      r0,[r0,#0]
        0x00000616:    9000        ..      STR      r0,[sp,#0]
        0x00000618:    0f64        d.      LSRS     r4,r4,#29
        0x0000061a:    2000        .       MOVS     r0,#0
        0x0000061c:    3140        @1      ADDS     r1,r1,#0x40
        0x0000061e:    6809        .h      LDR      r1,[r1,#0]
        0x00000620:    2205        ."      MOVS     r2,#5
        0x00000622:    0412        ..      LSLS     r2,r2,#16
        0x00000624:    4211        .B      TST      r1,r2
        0x00000626:    d116        ..      BNE      0x656 ; SystemCoreClockUpdate + 78
        0x00000628:    0308        ..      LSLS     r0,r1,#12
        0x0000062a:    d501        ..      BPL      0x630 ; SystemCoreClockUpdate + 40
        0x0000062c:    4816        .H      LDR      r0,[pc,#88] ; [0x688] = 0xb71b00
        0x0000062e:    e000        ..      B        0x632 ; SystemCoreClockUpdate + 42
        0x00000630:    4816        .H      LDR      r0,[pc,#88] ; [0x68c] = 0x1e84800
        0x00000632:    038a        ..      LSLS     r2,r1,#14
        0x00000634:    d40f        ..      BMI      0x656 ; SystemCoreClockUpdate + 78
        0x00000636:    040a        ..      LSLS     r2,r1,#16
        0x00000638:    0f92        ..      LSRS     r2,r2,#30
        0x0000063a:    466b        kF      MOV      r3,sp
        0x0000063c:    5c9b        .\      LDRB     r3,[r3,r2]
        0x0000063e:    05ca        ..      LSLS     r2,r1,#23
        0x00000640:    0489        ..      LSLS     r1,r1,#18
        0x00000642:    0dd2        ..      LSRS     r2,r2,#23
        0x00000644:    0ec9        ..      LSRS     r1,r1,#27
        0x00000646:    1c89        ..      ADDS     r1,r1,#2
        0x00000648:    0880        ..      LSRS     r0,r0,#2
        0x0000064a:    1c92        ..      ADDS     r2,r2,#2
        0x0000064c:    4359        YC      MULS     r1,r3,r1
        0x0000064e:    4350        PC      MULS     r0,r2,r0
        0x00000650:    f7fffdb8    ....    BL       __aeabi_uidiv ; 0x1c4
        0x00000654:    0080        ..      LSLS     r0,r0,#2
        0x00000656:    4e0e        .N      LDR      r6,[pc,#56] ; [0x690] = 0x20000000
        0x00000658:    2c02        .,      CMP      r4,#2
        0x0000065a:    60b0        .`      STR      r0,[r6,#8]
        0x0000065c:    d002        ..      BEQ      0x664 ; SystemCoreClockUpdate + 92
        0x0000065e:    490d        .I      LDR      r1,[pc,#52] ; [0x694] = 0x2390
        0x00000660:    00a0        ..      LSLS     r0,r4,#2
        0x00000662:    5808        .X      LDR      r0,[r1,r0]
        0x00000664:    6a29        )j      LDR      r1,[r5,#0x20]
        0x00000666:    0709        ..      LSLS     r1,r1,#28
        0x00000668:    0f09        ..      LSRS     r1,r1,#28
        0x0000066a:    1c49        I.      ADDS     r1,r1,#1
        0x0000066c:    f7fffdaa    ....    BL       __aeabi_uidiv ; 0x1c4
        0x00000670:    4909        .I      LDR      r1,[pc,#36] ; [0x698] = 0xf4240
        0x00000672:    6030        0`      STR      r0,[r6,#0]
        0x00000674:    104a        J.      ASRS     r2,r1,#1
        0x00000676:    1880        ..      ADDS     r0,r0,r2
        0x00000678:    f7fffda4    ....    BL       __aeabi_uidiv ; 0x1c4
        0x0000067c:    6070        p`      STR      r0,[r6,#4]
        0x0000067e:    bdf8        ..      POP      {r3-r7,pc}
    $d
        0x00000680:    40000200    ...@    DCD    1073742336
        0x00000684:    04020201    ....    DCD    67240449
        0x00000688:    00b71b00    ....    DCD    12000000
        0x0000068c:    01e84800    .H..    DCD    32000000
        0x00000690:    20000000    ...     DCD    536870912
        0x00000694:    00002390    .#..    DCD    9104
        0x00000698:    000f4240    @B..    DCD    1000000
    $t
    i.SystemInit
    SystemInit
        0x0000069c:    b510        ..      PUSH     {r4,lr}
        0x0000069e:    2159        Y!      MOVS     r1,#0x59
        0x000006a0:    480a        .H      LDR      r0,[pc,#40] ; [0x6cc] = 0x40000100
        0x000006a2:    2316        .#      MOVS     r3,#0x16
        0x000006a4:    2288        ."      MOVS     r2,#0x88
        0x000006a6:    6001        .`      STR      r1,[r0,#0]
        0x000006a8:    6003        .`      STR      r3,[r0,#0]
        0x000006aa:    6002        .`      STR      r2,[r0,#0]
        0x000006ac:    6804        .h      LDR      r4,[r0,#0]
        0x000006ae:    2c00        .,      CMP      r4,#0
        0x000006b0:    d0f9        ..      BEQ      0x6a6 ; SystemInit + 10
        0x000006b2:    4907        .I      LDR      r1,[pc,#28] ; [0x6d0] = 0x40000200
        0x000006b4:    680b        .h      LDR      r3,[r1,#0]
        0x000006b6:    2207        ."      MOVS     r2,#7
        0x000006b8:    0512        ..      LSLS     r2,r2,#20
        0x000006ba:    4393        .C      BICS     r3,r3,r2
        0x000006bc:    600b        .`      STR      r3,[r1,#0]
        0x000006be:    680b        .h      LDR      r3,[r1,#0]
        0x000006c0:    4313        .C      ORRS     r3,r3,r2
        0x000006c2:    600b        .`      STR      r3,[r1,#0]
        0x000006c4:    2100        .!      MOVS     r1,#0
        0x000006c6:    6001        .`      STR      r1,[r0,#0]
        0x000006c8:    bd10        ..      POP      {r4,pc}
    $d
        0x000006ca:    0000        ..      DCW    0
        0x000006cc:    40000100    ...@    DCD    1073742080
        0x000006d0:    40000200    ...@    DCD    1073742336
    $t
    i.TIMER3_Init
    TIMER3_Init
        0x000006d4:    b510        ..      PUSH     {r4,lr}
        0x000006d6:    4c0a        .L      LDR      r4,[pc,#40] ; [0x700] = 0x40051020
        0x000006d8:    227d        }"      MOVS     r2,#0x7d
        0x000006da:    2101        .!      MOVS     r1,#1
        0x000006dc:    00d2        ..      LSLS     r2,r2,#3
        0x000006de:    06c9        ..      LSLS     r1,r1,#27
        0x000006e0:    4620         F      MOV      r0,r4
        0x000006e2:    f000f849    ..I.    BL       TIMER_Open ; 0x778
        0x000006e6:    6820         h      LDR      r0,[r4,#0]
        0x000006e8:    0621        !.      LSLS     r1,r4,#24
        0x000006ea:    4308        .C      ORRS     r0,r0,r1
        0x000006ec:    6020         `      STR      r0,[r4,#0]
        0x000006ee:    1488        ..      ASRS     r0,r1,#18
        0x000006f0:    4904        .I      LDR      r1,[pc,#16] ; [0x704] = 0xe000e100
        0x000006f2:    6008        .`      STR      r0,[r1,#0]
        0x000006f4:    6820         h      LDR      r0,[r4,#0]
        0x000006f6:    0589        ..      LSLS     r1,r1,#22
        0x000006f8:    4308        .C      ORRS     r0,r0,r1
        0x000006fa:    6020         `      STR      r0,[r4,#0]
        0x000006fc:    bd10        ..      POP      {r4,pc}
    $d
        0x000006fe:    0000        ..      DCW    0
        0x00000700:    40051020     ..@    DCD    1074073632
        0x00000704:    e000e100    ....    DCD    3758153984
    $t
    i.TIMER_GetModuleClock
    TIMER_GetModuleClock
        0x00000708:    b510        ..      PUSH     {r4,lr}
        0x0000070a:    b088        ..      SUB      sp,sp,#0x20
        0x0000070c:    4604        .F      MOV      r4,r0
        0x0000070e:    2220         "      MOVS     r2,#0x20
        0x00000710:    4915        .I      LDR      r1,[pc,#84] ; [0x768] = 0x2430
        0x00000712:    4668        hF      MOV      r0,sp
        0x00000714:    f7fffd6c    ..l.    BL       __aeabi_memcpy ; 0x1f0
        0x00000718:    4b14        .K      LDR      r3,[pc,#80] ; [0x76c] = 0x40050000
        0x0000071a:    4a14        .J      LDR      r2,[pc,#80] ; [0x76c] = 0x40050000
        0x0000071c:    4814        .H      LDR      r0,[pc,#80] ; [0x770] = 0x40000200
        0x0000071e:    3320         3      ADDS     r3,r3,#0x20
        0x00000720:    4294        .B      CMP      r4,r2
        0x00000722:    d102        ..      BNE      0x72a ; TIMER_GetModuleClock + 34
        0x00000724:    6940        @i      LDR      r0,[r0,#0x14]
        0x00000726:    0a00        ..      LSRS     r0,r0,#8
        0x00000728:    e00b        ..      B        0x742 ; TIMER_GetModuleClock + 58
        0x0000072a:    429c        .B      CMP      r4,r3
        0x0000072c:    d102        ..      BNE      0x734 ; TIMER_GetModuleClock + 44
        0x0000072e:    6940        @i      LDR      r0,[r0,#0x14]
        0x00000730:    0b00        ..      LSRS     r0,r0,#12
        0x00000732:    e006        ..      B        0x742 ; TIMER_GetModuleClock + 58
        0x00000734:    490f        .I      LDR      r1,[pc,#60] ; [0x774] = 0x40051000
        0x00000736:    6940        @i      LDR      r0,[r0,#0x14]
        0x00000738:    428c        .B      CMP      r4,r1
        0x0000073a:    d101        ..      BNE      0x740 ; TIMER_GetModuleClock + 56
        0x0000073c:    0c00        ..      LSRS     r0,r0,#16
        0x0000073e:    e000        ..      B        0x742 ; TIMER_GetModuleClock + 58
        0x00000740:    0d00        ..      LSRS     r0,r0,#20
        0x00000742:    0741        A.      LSLS     r1,r0,#29
        0x00000744:    0f49        I.      LSRS     r1,r1,#29
        0x00000746:    2902        .)      CMP      r1,#2
        0x00000748:    d004        ..      BEQ      0x754 ; TIMER_GetModuleClock + 76
        0x0000074a:    0088        ..      LSLS     r0,r1,#2
        0x0000074c:    4669        iF      MOV      r1,sp
        0x0000074e:    5808        .X      LDR      r0,[r1,r0]
        0x00000750:    b008        ..      ADD      sp,sp,#0x20
        0x00000752:    bd10        ..      POP      {r4,pc}
        0x00000754:    4294        .B      CMP      r4,r2
        0x00000756:    d001        ..      BEQ      0x75c ; TIMER_GetModuleClock + 84
        0x00000758:    429c        .B      CMP      r4,r3
        0x0000075a:    d102        ..      BNE      0x762 ; TIMER_GetModuleClock + 90
        0x0000075c:    f7fffe0e    ....    BL       CLK_GetPCLK0Freq ; 0x37c
        0x00000760:    e7f6        ..      B        0x750 ; TIMER_GetModuleClock + 72
        0x00000762:    f7fffe1b    ....    BL       CLK_GetPCLK1Freq ; 0x39c
        0x00000766:    e7f3        ..      B        0x750 ; TIMER_GetModuleClock + 72
    $d
        0x00000768:    00002430    0$..    DCD    9264
        0x0000076c:    40050000    ...@    DCD    1074069504
        0x00000770:    40000200    ...@    DCD    1073742336
        0x00000774:    40051000    ...@    DCD    1074073600
    $t
    i.TIMER_Open
    TIMER_Open
        0x00000778:    b5f7        ..      PUSH     {r0-r2,r4-r7,lr}
        0x0000077a:    4617        .F      MOV      r7,r2
        0x0000077c:    4606        .F      MOV      r6,r0
        0x0000077e:    f7ffffc3    ....    BL       TIMER_GetModuleClock ; 0x708
        0x00000782:    4605        .F      MOV      r5,r0
        0x00000784:    2400        .$      MOVS     r4,#0
        0x00000786:    0840        @.      LSRS     r0,r0,#1
        0x00000788:    42b8        .B      CMP      r0,r7
        0x0000078a:    d801        ..      BHI      0x790 ; TIMER_Open + 24
        0x0000078c:    2002        .       MOVS     r0,#2
        0x0000078e:    e008        ..      B        0x7a2 ; TIMER_Open + 42
        0x00000790:    4639        9F      MOV      r1,r7
        0x00000792:    4628        (F      MOV      r0,r5
        0x00000794:    f7fffd16    ....    BL       __aeabi_uidiv ; 0x1c4
        0x00000798:    0e04        ..      LSRS     r4,r0,#24
        0x0000079a:    d002        ..      BEQ      0x7a2 ; TIMER_Open + 42
        0x0000079c:    1c61        a.      ADDS     r1,r4,#1
        0x0000079e:    f7fffd11    ....    BL       __aeabi_uidiv ; 0x1c4
        0x000007a2:    9901        ..      LDR      r1,[sp,#4]
        0x000007a4:    4321        !C      ORRS     r1,r1,r4
        0x000007a6:    6031        1`      STR      r1,[r6,#0]
        0x000007a8:    6070        p`      STR      r0,[r6,#4]
        0x000007aa:    1c64        d.      ADDS     r4,r4,#1
        0x000007ac:    4360        `C      MULS     r0,r4,r0
        0x000007ae:    4601        .F      MOV      r1,r0
        0x000007b0:    4628        (F      MOV      r0,r5
        0x000007b2:    f7fffd07    ....    BL       __aeabi_uidiv ; 0x1c4
        0x000007b6:    bdfe        ..      POP      {r1-r7,pc}
    i.TMR3_IRQHandler
    TMR3_IRQHandler
        0x000007b8:    4908        .I      LDR      r1,[pc,#32] ; [0x7dc] = 0x40051020
        0x000007ba:    6888        .h      LDR      r0,[r1,#8]
        0x000007bc:    07c0        ..      LSLS     r0,r0,#31
        0x000007be:    0fc0        ..      LSRS     r0,r0,#31
        0x000007c0:    d00b        ..      BEQ      0x7da ; TMR3_IRQHandler + 34
        0x000007c2:    2001        .       MOVS     r0,#1
        0x000007c4:    6088        .`      STR      r0,[r1,#8]
        0x000007c6:    4906        .I      LDR      r1,[pc,#24] ; [0x7e0] = 0x20000010
        0x000007c8:    8808        ..      LDRH     r0,[r1,#0]
        0x000007ca:    1c42        B.      ADDS     r2,r0,#1
        0x000007cc:    800a        ..      STRH     r2,[r1,#0]
        0x000007ce:    227d        }"      MOVS     r2,#0x7d
        0x000007d0:    00d2        ..      LSLS     r2,r2,#3
        0x000007d2:    4290        .B      CMP      r0,r2
        0x000007d4:    d301        ..      BCC      0x7da ; TMR3_IRQHandler + 34
        0x000007d6:    2000        .       MOVS     r0,#0
        0x000007d8:    8008        ..      STRH     r0,[r1,#0]
        0x000007da:    4770        pG      BX       lr
    $d
        0x000007dc:    40051020     ..@    DCD    1074073632
        0x000007e0:    20000010    ...     DCD    536870928
    $t
    i.UART0_Init
    UART0_Init
        0x000007e4:    b510        ..      PUSH     {r4,lr}
        0x000007e6:    4825        %H      LDR      r0,[pc,#148] ; [0x87c] = 0x4000010
        0x000007e8:    f7fffede    ....    BL       SYS_ResetModule ; 0x5a8
        0x000007ec:    21e1        .!      MOVS     r1,#0xe1
        0x000007ee:    0249        I.      LSLS     r1,r1,#9
        0x000007f0:    4823        #H      LDR      r0,[pc,#140] ; [0x880] = 0x40070000
        0x000007f2:    f000f88b    ....    BL       UART_Open ; 0x90c
        0x000007f6:    f001f9d1    ....    BL       vTaskSuspendAll ; 0x1b9c
        0x000007fa:    f7fffda1    ....    BL       CLK_GetCPUFreq ; 0x340
        0x000007fe:    4601        .F      MOV      r1,r0
        0x00000800:    a020         .      ADR      r0,{pc}+0x84 ; 0x884
        0x00000802:    f000f8f5    ....    BL       __0printf$8 ; 0x9f0
        0x00000806:    4826        &H      LDR      r0,[pc,#152] ; [0x8a0] = 0x2000000c
        0x00000808:    2000        .       MOVS     r0,#0
        0x0000080a:    46c0        .F      MOV      r8,r8
        0x0000080c:    f001fd22    ..".    BL       xTaskResumeAll ; 0x2254
        0x00000810:    f001f9c4    ....    BL       vTaskSuspendAll ; 0x1b9c
        0x00000814:    f7fffd9c    ....    BL       CLK_GetHXTFreq ; 0x350
        0x00000818:    4601        .F      MOV      r1,r0
        0x0000081a:    a022        ".      ADR      r0,{pc}+0x8a ; 0x8a4
        0x0000081c:    f000f8e8    ....    BL       __0printf$8 ; 0x9f0
        0x00000820:    481f        .H      LDR      r0,[pc,#124] ; [0x8a0] = 0x2000000c
        0x00000822:    2000        .       MOVS     r0,#0
        0x00000824:    46c0        .F      MOV      r8,r8
        0x00000826:    f001fd15    ....    BL       xTaskResumeAll ; 0x2254
        0x0000082a:    f001f9b7    ....    BL       vTaskSuspendAll ; 0x1b9c
        0x0000082e:    f7fffd99    ....    BL       CLK_GetLXTFreq ; 0x364
        0x00000832:    4601        .F      MOV      r1,r0
        0x00000834:    a021        !.      ADR      r0,{pc}+0x88 ; 0x8bc
        0x00000836:    f000f8db    ....    BL       __0printf$8 ; 0x9f0
        0x0000083a:    4819        .H      LDR      r0,[pc,#100] ; [0x8a0] = 0x2000000c
        0x0000083c:    2000        .       MOVS     r0,#0
        0x0000083e:    46c0        .F      MOV      r8,r8
        0x00000840:    f001fd08    ....    BL       xTaskResumeAll ; 0x2254
        0x00000844:    f001f9aa    ....    BL       vTaskSuspendAll ; 0x1b9c
        0x00000848:    f7fffd98    ....    BL       CLK_GetPCLK0Freq ; 0x37c
        0x0000084c:    4601        .F      MOV      r1,r0
        0x0000084e:    a021        !.      ADR      r0,{pc}+0x86 ; 0x8d4
        0x00000850:    f000f8ce    ....    BL       __0printf$8 ; 0x9f0
        0x00000854:    4812        .H      LDR      r0,[pc,#72] ; [0x8a0] = 0x2000000c
        0x00000856:    2000        .       MOVS     r0,#0
        0x00000858:    46c0        .F      MOV      r8,r8
        0x0000085a:    f001fcfb    ....    BL       xTaskResumeAll ; 0x2254
        0x0000085e:    f001f99d    ....    BL       vTaskSuspendAll ; 0x1b9c
        0x00000862:    f7fffd9b    ....    BL       CLK_GetPCLK1Freq ; 0x39c
        0x00000866:    4601        .F      MOV      r1,r0
        0x00000868:    a021        !.      ADR      r0,{pc}+0x88 ; 0x8f0
        0x0000086a:    f000f8c1    ....    BL       __0printf$8 ; 0x9f0
        0x0000086e:    480c        .H      LDR      r0,[pc,#48] ; [0x8a0] = 0x2000000c
        0x00000870:    2000        .       MOVS     r0,#0
        0x00000872:    46c0        .F      MOV      r8,r8
        0x00000874:    f001fcee    ....    BL       xTaskResumeAll ; 0x2254
        0x00000878:    bd10        ..      POP      {r4,pc}
    $d
        0x0000087a:    0000        ..      DCW    0
        0x0000087c:    04000010    ....    DCD    67108880
        0x00000880:    40070000    ...@    DCD    1074200576
        0x00000884:    4c430a0d    ..CL    DCD    1279461901
        0x00000888:    65475f4b    K_Ge    DCD    1699176267
        0x0000088c:    55504374    tCPU    DCD    1431323508
        0x00000890:    71657246    Freq    DCD    1902473798
        0x00000894:    25203a20     : %    DCD    622869024
        0x00000898:    0a0d6438    8d..    DCD    168649784
        0x0000089c:    00000000    ....    DCD    0
        0x000008a0:    2000000c    ...     DCD    536870924
        0x000008a4:    5f4b4c43    CLK_    DCD    1598770243
        0x000008a8:    48746547    GetH    DCD    1215587655
        0x000008ac:    72465458    XTFr    DCD    1917211736
        0x000008b0:    3a207165    eq :    DCD    975204709
        0x000008b4:    64382520     %8d    DCD    1681401120
        0x000008b8:    00000a0d    ....    DCD    2573
        0x000008bc:    5f4b4c43    CLK_    DCD    1598770243
        0x000008c0:    4c746547    GetL    DCD    1282696519
        0x000008c4:    72465458    XTFr    DCD    1917211736
        0x000008c8:    3a207165    eq :    DCD    975204709
        0x000008cc:    64382520     %8d    DCD    1681401120
        0x000008d0:    00000a0d    ....    DCD    2573
        0x000008d4:    5f4b4c43    CLK_    DCD    1598770243
        0x000008d8:    50746547    GetP    DCD    1349805383
        0x000008dc:    304b4c43    CLK0    DCD    810241091
        0x000008e0:    71657246    Freq    DCD    1902473798
        0x000008e4:    25203a20     : %    DCD    622869024
        0x000008e8:    0a0d6438    8d..    DCD    168649784
        0x000008ec:    00000000    ....    DCD    0
        0x000008f0:    5f4b4c43    CLK_    DCD    1598770243
        0x000008f4:    50746547    GetP    DCD    1349805383
        0x000008f8:    314b4c43    CLK1    DCD    827018307
        0x000008fc:    71657246    Freq    DCD    1902473798
        0x00000900:    25203a20     : %    DCD    622869024
        0x00000904:    0a0d6438    8d..    DCD    168649784
        0x00000908:    00000000    ....    DCD    0
    $t
    i.UART_Open
    UART_Open
        0x0000090c:    b5f0        ..      PUSH     {r4-r7,lr}
        0x0000090e:    b087        ..      SUB      sp,sp,#0x1c
        0x00000910:    460f        .F      MOV      r7,r1
        0x00000912:    4604        .F      MOV      r4,r0
        0x00000914:    2500        .%      MOVS     r5,#0
        0x00000916:    462e        .F      MOV      r6,r5
        0x00000918:    2218        ."      MOVS     r2,#0x18
        0x0000091a:    492e        .I      LDR      r1,[pc,#184] ; [0x9d4] = 0x23b0
        0x0000091c:    4668        hF      MOV      r0,sp
        0x0000091e:    f7fffc67    ..g.    BL       __aeabi_memcpy ; 0x1f0
        0x00000922:    492d        -I      LDR      r1,[pc,#180] ; [0x9d8] = 0x40070000
        0x00000924:    482d        -H      LDR      r0,[pc,#180] ; [0x9dc] = 0x40000200
        0x00000926:    4a2e        .J      LDR      r2,[pc,#184] ; [0x9e0] = 0x40072000
        0x00000928:    428c        .B      CMP      r4,r1
        0x0000092a:    d105        ..      BNE      0x938 ; UART_Open + 44
        0x0000092c:    6943        Ci      LDR      r3,[r0,#0x14]
        0x0000092e:    6a00        .j      LDR      r0,[r0,#0x20]
        0x00000930:    015b        [.      LSLS     r3,r3,#5
        0x00000932:    0f5d        ].      LSRS     r5,r3,#29
        0x00000934:    0a00        ..      LSRS     r0,r0,#8
        0x00000936:    e00f        ..      B        0x958 ; UART_Open + 76
        0x00000938:    4b2a        *K      LDR      r3,[pc,#168] ; [0x9e4] = 0x40071000
        0x0000093a:    429c        .B      CMP      r4,r3
        0x0000093c:    d106        ..      BNE      0x94c ; UART_Open + 64
        0x0000093e:    6943        Ci      LDR      r3,[r0,#0x14]
        0x00000940:    6a00        .j      LDR      r0,[r0,#0x20]
        0x00000942:    005b        [.      LSLS     r3,r3,#1
        0x00000944:    0f5d        ].      LSRS     r5,r3,#29
        0x00000946:    0400        ..      LSLS     r0,r0,#16
        0x00000948:    0f06        ..      LSRS     r6,r0,#28
        0x0000094a:    e007        ..      B        0x95c ; UART_Open + 80
        0x0000094c:    4294        .B      CMP      r4,r2
        0x0000094e:    d105        ..      BNE      0x95c ; UART_Open + 80
        0x00000950:    69c3        .i      LDR      r3,[r0,#0x1c]
        0x00000952:    6b00        .k      LDR      r0,[r0,#0x30]
        0x00000954:    015b        [.      LSLS     r3,r3,#5
        0x00000956:    0f5d        ].      LSRS     r5,r3,#29
        0x00000958:    0706        ..      LSLS     r6,r0,#28
        0x0000095a:    0f36        6.      LSRS     r6,r6,#28
        0x0000095c:    2000        .       MOVS     r0,#0
        0x0000095e:    6320         c      STR      r0,[r4,#0x30]
        0x00000960:    2003        .       MOVS     r0,#3
        0x00000962:    60e0        .`      STR      r0,[r4,#0xc]
        0x00000964:    68a0        .h      LDR      r0,[r4,#8]
        0x00000966:    4b20         K      LDR      r3,[pc,#128] ; [0x9e8] = 0xfff0ff0f
        0x00000968:    4018        .@      ANDS     r0,r0,r3
        0x0000096a:    60a0        .`      STR      r0,[r4,#8]
        0x0000096c:    2d01        .-      CMP      r5,#1
        0x0000096e:    d002        ..      BEQ      0x976 ; UART_Open + 106
        0x00000970:    2d04        .-      CMP      r5,#4
        0x00000972:    d004        ..      BEQ      0x97e ; UART_Open + 114
        0x00000974:    e00d        ..      B        0x992 ; UART_Open + 134
        0x00000976:    f7fffd21    ..!.    BL       CLK_GetPLLClockFreq ; 0x3bc
        0x0000097a:    9001        ..      STR      r0,[sp,#4]
        0x0000097c:    e009        ..      B        0x992 ; UART_Open + 134
        0x0000097e:    428c        .B      CMP      r4,r1
        0x00000980:    d001        ..      BEQ      0x986 ; UART_Open + 122
        0x00000982:    4294        .B      CMP      r4,r2
        0x00000984:    d102        ..      BNE      0x98c ; UART_Open + 128
        0x00000986:    f7fffcf9    ....    BL       CLK_GetPCLK0Freq ; 0x37c
        0x0000098a:    e001        ..      B        0x990 ; UART_Open + 132
        0x0000098c:    f7fffd06    ....    BL       CLK_GetPCLK1Freq ; 0x39c
        0x00000990:    9004        ..      STR      r0,[sp,#0x10]
        0x00000992:    2f00        ./      CMP      r7,#0
        0x00000994:    d01b        ..      BEQ      0x9ce ; UART_Open + 194
        0x00000996:    00a9        ..      LSLS     r1,r5,#2
        0x00000998:    4668        hF      MOV      r0,sp
        0x0000099a:    5840        @X      LDR      r0,[r0,r1]
        0x0000099c:    1c71        q.      ADDS     r1,r6,#1
        0x0000099e:    f7fffc11    ....    BL       __aeabi_uidiv ; 0x1c4
        0x000009a2:    4605        .F      MOV      r5,r0
        0x000009a4:    0879        y.      LSRS     r1,r7,#1
        0x000009a6:    1840        @.      ADDS     r0,r0,r1
        0x000009a8:    4639        9F      MOV      r1,r7
        0x000009aa:    f7fffc0b    ....    BL       __aeabi_uidiv ; 0x1c4
        0x000009ae:    490f        .I      LDR      r1,[pc,#60] ; [0x9ec] = 0xffff
        0x000009b0:    1e80        ..      SUBS     r0,r0,#2
        0x000009b2:    4288        .B      CMP      r0,r1
        0x000009b4:    d907        ..      BLS      0x9c6 ; UART_Open + 186
        0x000009b6:    00f9        ..      LSLS     r1,r7,#3
        0x000009b8:    1868        h.      ADDS     r0,r5,r1
        0x000009ba:    4639        9F      MOV      r1,r7
        0x000009bc:    f7fffc02    ....    BL       __aeabi_uidiv ; 0x1c4
        0x000009c0:    0900        ..      LSRS     r0,r0,#4
        0x000009c2:    1e80        ..      SUBS     r0,r0,#2
        0x000009c4:    e002        ..      B        0x9cc ; UART_Open + 192
        0x000009c6:    2103        .!      MOVS     r1,#3
        0x000009c8:    0709        ..      LSLS     r1,r1,#28
        0x000009ca:    4308        .C      ORRS     r0,r0,r1
        0x000009cc:    6260        `b      STR      r0,[r4,#0x24]
        0x000009ce:    b007        ..      ADD      sp,sp,#0x1c
        0x000009d0:    bdf0        ..      POP      {r4-r7,pc}
    $d
        0x000009d2:    0000        ..      DCW    0
        0x000009d4:    000023b0    .#..    DCD    9136
        0x000009d8:    40070000    ...@    DCD    1074200576
        0x000009dc:    40000200    ...@    DCD    1073742336
        0x000009e0:    40072000    . .@    DCD    1074208768
        0x000009e4:    40071000    ...@    DCD    1074204672
        0x000009e8:    fff0ff0f    ....    DCD    4293984015
        0x000009ec:    0000ffff    ....    DCD    65535
    $t
    i.__0printf$8
    __0printf$8
    __1printf$8
    __2printf
        0x000009f0:    b40f        ..      PUSH     {r0-r3}
        0x000009f2:    b510        ..      PUSH     {r4,lr}
        0x000009f4:    a903        ..      ADD      r1,sp,#0xc
        0x000009f6:    4b04        .K      LDR      r3,[pc,#16] ; [0xa08] = 0xebd
        0x000009f8:    4a04        .J      LDR      r2,[pc,#16] ; [0xa0c] = 0x2000000c
        0x000009fa:    9802        ..      LDR      r0,[sp,#8]
        0x000009fc:    f000f824    ..$.    BL       _printf_core ; 0xa48
        0x00000a00:    bc10        ..      POP      {r4}
        0x00000a02:    bc08        ..      POP      {r3}
        0x00000a04:    b004        ..      ADD      sp,sp,#0x10
        0x00000a06:    4718        .G      BX       r3
    $d
        0x00000a08:    00000ebd    ....    DCD    3773
        0x00000a0c:    2000000c    ...     DCD    536870924
    $t
    i.__ARM_common_switch8
    __ARM_common_switch8
        0x00000a10:    b430        0.      PUSH     {r4,r5}
        0x00000a12:    4674        tF      MOV      r4,lr
        0x00000a14:    1e64        d.      SUBS     r4,r4,#1
        0x00000a16:    7825        %x      LDRB     r5,[r4,#0]
        0x00000a18:    1c64        d.      ADDS     r4,r4,#1
        0x00000a1a:    42ab        .B      CMP      r3,r5
        0x00000a1c:    d200        ..      BCS      0xa20 ; __ARM_common_switch8 + 16
        0x00000a1e:    461d        .F      MOV      r5,r3
        0x00000a20:    5d63        c]      LDRB     r3,[r4,r5]
        0x00000a22:    005b        [.      LSLS     r3,r3,#1
        0x00000a24:    18e3        ..      ADDS     r3,r4,r3
        0x00000a26:    bc30        0.      POP      {r4,r5}
        0x00000a28:    4718        .G      BX       r3
    i.__scatterload_copy
    __scatterload_copy
        0x00000a2a:    e002        ..      B        0xa32 ; __scatterload_copy + 8
        0x00000a2c:    c808        ..      LDM      r0!,{r3}
        0x00000a2e:    1f12        ..      SUBS     r2,r2,#4
        0x00000a30:    c108        ..      STM      r1!,{r3}
        0x00000a32:    2a00        .*      CMP      r2,#0
        0x00000a34:    d1fa        ..      BNE      0xa2c ; __scatterload_copy + 2
        0x00000a36:    4770        pG      BX       lr
    i.__scatterload_null
    __scatterload_null
        0x00000a38:    4770        pG      BX       lr
    i.__scatterload_zeroinit
    __scatterload_zeroinit
        0x00000a3a:    2000        .       MOVS     r0,#0
        0x00000a3c:    e001        ..      B        0xa42 ; __scatterload_zeroinit + 8
        0x00000a3e:    c101        ..      STM      r1!,{r0}
        0x00000a40:    1f12        ..      SUBS     r2,r2,#4
        0x00000a42:    2a00        .*      CMP      r2,#0
        0x00000a44:    d1fb        ..      BNE      0xa3e ; __scatterload_zeroinit + 4
        0x00000a46:    4770        pG      BX       lr
    i._printf_core
    _printf_core
        0x00000a48:    b5ff        ..      PUSH     {r0-r7,lr}
        0x00000a4a:    b091        ..      SUB      sp,sp,#0x44
        0x00000a4c:    460f        .F      MOV      r7,r1
        0x00000a4e:    4605        .F      MOV      r5,r0
        0x00000a50:    2600        .&      MOVS     r6,#0
        0x00000a52:    e006        ..      B        0xa62 ; _printf_core + 26
        0x00000a54:    2825        %(      CMP      r0,#0x25
        0x00000a56:    d00a        ..      BEQ      0xa6e ; _printf_core + 38
        0x00000a58:    9a14        ..      LDR      r2,[sp,#0x50]
        0x00000a5a:    9913        ..      LDR      r1,[sp,#0x4c]
        0x00000a5c:    4790        .G      BLX      r2
        0x00000a5e:    1c6d        m.      ADDS     r5,r5,#1
        0x00000a60:    1c76        v.      ADDS     r6,r6,#1
        0x00000a62:    7828        (x      LDRB     r0,[r5,#0]
        0x00000a64:    2800        .(      CMP      r0,#0
        0x00000a66:    d1f5        ..      BNE      0xa54 ; _printf_core + 12
        0x00000a68:    4630        0F      MOV      r0,r6
        0x00000a6a:    b015        ..      ADD      sp,sp,#0x54
        0x00000a6c:    bdf0        ..      POP      {r4-r7,pc}
        0x00000a6e:    2400        .$      MOVS     r4,#0
        0x00000a70:    9400        ..      STR      r4,[sp,#0]
        0x00000a72:    2101        .!      MOVS     r1,#1
        0x00000a74:    4af3        .J      LDR      r2,[pc,#972] ; [0xe44] = 0x12809
        0x00000a76:    9402        ..      STR      r4,[sp,#8]
        0x00000a78:    e000        ..      B        0xa7c ; _printf_core + 52
        0x00000a7a:    4304        .C      ORRS     r4,r4,r0
        0x00000a7c:    1c6d        m.      ADDS     r5,r5,#1
        0x00000a7e:    782b        +x      LDRB     r3,[r5,#0]
        0x00000a80:    4608        .F      MOV      r0,r1
        0x00000a82:    3b20         ;      SUBS     r3,r3,#0x20
        0x00000a84:    4098        .@      LSLS     r0,r0,r3
        0x00000a86:    4210        .B      TST      r0,r2
        0x00000a88:    d1f7        ..      BNE      0xa7a ; _printf_core + 50
        0x00000a8a:    7828        (x      LDRB     r0,[r5,#0]
        0x00000a8c:    282a        *(      CMP      r0,#0x2a
        0x00000a8e:    d00e        ..      BEQ      0xaae ; _printf_core + 102
        0x00000a90:    2102        .!      MOVS     r1,#2
        0x00000a92:    7828        (x      LDRB     r0,[r5,#0]
        0x00000a94:    4602        .F      MOV      r2,r0
        0x00000a96:    3a30        0:      SUBS     r2,r2,#0x30
        0x00000a98:    2a09        .*      CMP      r2,#9
        0x00000a9a:    d815        ..      BHI      0xac8 ; _printf_core + 128
        0x00000a9c:    9a00        ..      LDR      r2,[sp,#0]
        0x00000a9e:    230a        .#      MOVS     r3,#0xa
        0x00000aa0:    435a        ZC      MULS     r2,r3,r2
        0x00000aa2:    3a30        0:      SUBS     r2,r2,#0x30
        0x00000aa4:    1880        ..      ADDS     r0,r0,r2
        0x00000aa6:    430c        .C      ORRS     r4,r4,r1
        0x00000aa8:    1c6d        m.      ADDS     r5,r5,#1
        0x00000aaa:    9000        ..      STR      r0,[sp,#0]
        0x00000aac:    e7f1        ..      B        0xa92 ; _printf_core + 74
        0x00000aae:    cf01        ..      LDM      r7!,{r0}
        0x00000ab0:    9000        ..      STR      r0,[sp,#0]
        0x00000ab2:    2800        .(      CMP      r0,#0
        0x00000ab4:    da05        ..      BGE      0xac2 ; _printf_core + 122
        0x00000ab6:    2001        .       MOVS     r0,#1
        0x00000ab8:    0340        @.      LSLS     r0,r0,#13
        0x00000aba:    4304        .C      ORRS     r4,r4,r0
        0x00000abc:    9800        ..      LDR      r0,[sp,#0]
        0x00000abe:    4240        @B      RSBS     r0,r0,#0
        0x00000ac0:    9000        ..      STR      r0,[sp,#0]
        0x00000ac2:    2002        .       MOVS     r0,#2
        0x00000ac4:    4304        .C      ORRS     r4,r4,r0
        0x00000ac6:    1c6d        m.      ADDS     r5,r5,#1
        0x00000ac8:    7828        (x      LDRB     r0,[r5,#0]
        0x00000aca:    282e        .(      CMP      r0,#0x2e
        0x00000acc:    d115        ..      BNE      0xafa ; _printf_core + 178
        0x00000ace:    2004        .       MOVS     r0,#4
        0x00000ad0:    4304        .C      ORRS     r4,r4,r0
        0x00000ad2:    7868        hx      LDRB     r0,[r5,#1]
        0x00000ad4:    1c6d        m.      ADDS     r5,r5,#1
        0x00000ad6:    282a        *(      CMP      r0,#0x2a
        0x00000ad8:    d10a        ..      BNE      0xaf0 ; _printf_core + 168
        0x00000ada:    cf01        ..      LDM      r7!,{r0}
        0x00000adc:    1c6d        m.      ADDS     r5,r5,#1
        0x00000ade:    9002        ..      STR      r0,[sp,#8]
        0x00000ae0:    e00b        ..      B        0xafa ; _printf_core + 178
        0x00000ae2:    9902        ..      LDR      r1,[sp,#8]
        0x00000ae4:    220a        ."      MOVS     r2,#0xa
        0x00000ae6:    4351        QC      MULS     r1,r2,r1
        0x00000ae8:    3930        09      SUBS     r1,r1,#0x30
        0x00000aea:    1840        @.      ADDS     r0,r0,r1
        0x00000aec:    1c6d        m.      ADDS     r5,r5,#1
        0x00000aee:    9002        ..      STR      r0,[sp,#8]
        0x00000af0:    7828        (x      LDRB     r0,[r5,#0]
        0x00000af2:    4601        .F      MOV      r1,r0
        0x00000af4:    3930        09      SUBS     r1,r1,#0x30
        0x00000af6:    2909        .)      CMP      r1,#9
        0x00000af8:    d9f3        ..      BLS      0xae2 ; _printf_core + 154
        0x00000afa:    7828        (x      LDRB     r0,[r5,#0]
        0x00000afc:    286c        l(      CMP      r0,#0x6c
        0x00000afe:    d010        ..      BEQ      0xb22 ; _printf_core + 218
        0x00000b00:    dc06        ..      BGT      0xb10 ; _printf_core + 200
        0x00000b02:    284c        L(      CMP      r0,#0x4c
        0x00000b04:    d01a        ..      BEQ      0xb3c ; _printf_core + 244
        0x00000b06:    2868        h(      CMP      r0,#0x68
        0x00000b08:    d00e        ..      BEQ      0xb28 ; _printf_core + 224
        0x00000b0a:    286a        j(      CMP      r0,#0x6a
        0x00000b0c:    d117        ..      BNE      0xb3e ; _printf_core + 246
        0x00000b0e:    e004        ..      B        0xb1a ; _printf_core + 210
        0x00000b10:    2874        t(      CMP      r0,#0x74
        0x00000b12:    d013        ..      BEQ      0xb3c ; _printf_core + 244
        0x00000b14:    287a        z(      CMP      r0,#0x7a
        0x00000b16:    d112        ..      BNE      0xb3e ; _printf_core + 246
        0x00000b18:    e010        ..      B        0xb3c ; _printf_core + 244
        0x00000b1a:    2001        .       MOVS     r0,#1
        0x00000b1c:    0540        @.      LSLS     r0,r0,#21
        0x00000b1e:    4304        .C      ORRS     r4,r4,r0
        0x00000b20:    e00c        ..      B        0xb3c ; _printf_core + 244
        0x00000b22:    2101        .!      MOVS     r1,#1
        0x00000b24:    0509        ..      LSLS     r1,r1,#20
        0x00000b26:    e001        ..      B        0xb2c ; _printf_core + 228
        0x00000b28:    2103        .!      MOVS     r1,#3
        0x00000b2a:    0509        ..      LSLS     r1,r1,#20
        0x00000b2c:    430c        .C      ORRS     r4,r4,r1
        0x00000b2e:    7869        ix      LDRB     r1,[r5,#1]
        0x00000b30:    4281        .B      CMP      r1,r0
        0x00000b32:    d103        ..      BNE      0xb3c ; _printf_core + 244
        0x00000b34:    2001        .       MOVS     r0,#1
        0x00000b36:    0500        ..      LSLS     r0,r0,#20
        0x00000b38:    1824        $.      ADDS     r4,r4,r0
        0x00000b3a:    1c6d        m.      ADDS     r5,r5,#1
        0x00000b3c:    1c6d        m.      ADDS     r5,r5,#1
        0x00000b3e:    7828        (x      LDRB     r0,[r5,#0]
        0x00000b40:    9003        ..      STR      r0,[sp,#0xc]
        0x00000b42:    286e        n(      CMP      r0,#0x6e
        0x00000b44:    d01e        ..      BEQ      0xb84 ; _printf_core + 316
        0x00000b46:    dc0c        ..      BGT      0xb62 ; _printf_core + 282
        0x00000b48:    2863        c(      CMP      r0,#0x63
        0x00000b4a:    d031        1.      BEQ      0xbb0 ; _printf_core + 360
        0x00000b4c:    dc04        ..      BGT      0xb58 ; _printf_core + 272
        0x00000b4e:    2800        .(      CMP      r0,#0
        0x00000b50:    d08a        ..      BEQ      0xa68 ; _printf_core + 32
        0x00000b52:    2858        X(      CMP      r0,#0x58
        0x00000b54:    d111        ..      BNE      0xb7a ; _printf_core + 306
        0x00000b56:    e0b2        ..      B        0xcbe ; _printf_core + 630
        0x00000b58:    2864        d(      CMP      r0,#0x64
        0x00000b5a:    d07b        {.      BEQ      0xc54 ; _printf_core + 524
        0x00000b5c:    2869        i(      CMP      r0,#0x69
        0x00000b5e:    d10c        ..      BNE      0xb7a ; _printf_core + 306
        0x00000b60:    e078        x.      B        0xc54 ; _printf_core + 524
        0x00000b62:    2873        s(      CMP      r0,#0x73
        0x00000b64:    d02d        -.      BEQ      0xbc2 ; _printf_core + 378
        0x00000b66:    dc04        ..      BGT      0xb72 ; _printf_core + 298
        0x00000b68:    286f        o(      CMP      r0,#0x6f
        0x00000b6a:    d070        p.      BEQ      0xc4e ; _printf_core + 518
        0x00000b6c:    2870        p(      CMP      r0,#0x70
        0x00000b6e:    d104        ..      BNE      0xb7a ; _printf_core + 306
        0x00000b70:    e0a7        ..      B        0xcc2 ; _printf_core + 634
        0x00000b72:    2875        u(      CMP      r0,#0x75
        0x00000b74:    d06c        l.      BEQ      0xc50 ; _printf_core + 520
        0x00000b76:    2878        x(      CMP      r0,#0x78
        0x00000b78:    d06b        k.      BEQ      0xc52 ; _printf_core + 522
        0x00000b7a:    9a14        ..      LDR      r2,[sp,#0x50]
        0x00000b7c:    9913        ..      LDR      r1,[sp,#0x4c]
        0x00000b7e:    4790        .G      BLX      r2
        0x00000b80:    1c76        v.      ADDS     r6,r6,#1
        0x00000b82:    e062        b.      B        0xc4a ; _printf_core + 514
        0x00000b84:    0260        `.      LSLS     r0,r4,#9
        0x00000b86:    0f40        @.      LSRS     r0,r0,#29
        0x00000b88:    2802        .(      CMP      r0,#2
        0x00000b8a:    d007        ..      BEQ      0xb9c ; _printf_core + 340
        0x00000b8c:    2803        .(      CMP      r0,#3
        0x00000b8e:    d00a        ..      BEQ      0xba6 ; _printf_core + 350
        0x00000b90:    2804        .(      CMP      r0,#4
        0x00000b92:    6838        8h      LDR      r0,[r7,#0]
        0x00000b94:    d00a        ..      BEQ      0xbac ; _printf_core + 356
        0x00000b96:    6006        .`      STR      r6,[r0,#0]
        0x00000b98:    1d3f        ?.      ADDS     r7,r7,#4
        0x00000b9a:    e056        V.      B        0xc4a ; _printf_core + 514
        0x00000b9c:    6838        8h      LDR      r0,[r7,#0]
        0x00000b9e:    17f1        ..      ASRS     r1,r6,#31
        0x00000ba0:    6006        .`      STR      r6,[r0,#0]
        0x00000ba2:    6041        A`      STR      r1,[r0,#4]
        0x00000ba4:    e7f8        ..      B        0xb98 ; _printf_core + 336
        0x00000ba6:    6838        8h      LDR      r0,[r7,#0]
        0x00000ba8:    8006        ..      STRH     r6,[r0,#0]
        0x00000baa:    e7f5        ..      B        0xb98 ; _printf_core + 336
        0x00000bac:    7006        .p      STRB     r6,[r0,#0]
        0x00000bae:    e7f3        ..      B        0xb98 ; _printf_core + 336
        0x00000bb0:    7838        8x      LDRB     r0,[r7,#0]
        0x00000bb2:    4669        iF      MOV      r1,sp
        0x00000bb4:    7408        .t      STRB     r0,[r1,#0x10]
        0x00000bb6:    2000        .       MOVS     r0,#0
        0x00000bb8:    7448        Ht      STRB     r0,[r1,#0x11]
        0x00000bba:    a804        ..      ADD      r0,sp,#0x10
        0x00000bbc:    9003        ..      STR      r0,[sp,#0xc]
        0x00000bbe:    2001        .       MOVS     r0,#1
        0x00000bc0:    e003        ..      B        0xbca ; _printf_core + 386
        0x00000bc2:    6838        8h      LDR      r0,[r7,#0]
        0x00000bc4:    9003        ..      STR      r0,[sp,#0xc]
        0x00000bc6:    2000        .       MOVS     r0,#0
        0x00000bc8:    43c0        .C      MVNS     r0,r0
        0x00000bca:    1d3f        ?.      ADDS     r7,r7,#4
        0x00000bcc:    0761        a.      LSLS     r1,r4,#29
        0x00000bce:    d50f        ..      BPL      0xbf0 ; _printf_core + 424
        0x00000bd0:    2100        .!      MOVS     r1,#0
        0x00000bd2:    e001        ..      B        0xbd8 ; _printf_core + 400
        0x00000bd4:    9901        ..      LDR      r1,[sp,#4]
        0x00000bd6:    1c49        I.      ADDS     r1,r1,#1
        0x00000bd8:    9a02        ..      LDR      r2,[sp,#8]
        0x00000bda:    9101        ..      STR      r1,[sp,#4]
        0x00000bdc:    4291        .B      CMP      r1,r2
        0x00000bde:    da13        ..      BGE      0xc08 ; _printf_core + 448
        0x00000be0:    4281        .B      CMP      r1,r0
        0x00000be2:    dbf7        ..      BLT      0xbd4 ; _printf_core + 396
        0x00000be4:    9a01        ..      LDR      r2,[sp,#4]
        0x00000be6:    9903        ..      LDR      r1,[sp,#0xc]
        0x00000be8:    5c89        .\      LDRB     r1,[r1,r2]
        0x00000bea:    2900        .)      CMP      r1,#0
        0x00000bec:    d1f2        ..      BNE      0xbd4 ; _printf_core + 396
        0x00000bee:    e00b        ..      B        0xc08 ; _printf_core + 448
        0x00000bf0:    2100        .!      MOVS     r1,#0
        0x00000bf2:    e001        ..      B        0xbf8 ; _printf_core + 432
        0x00000bf4:    9901        ..      LDR      r1,[sp,#4]
        0x00000bf6:    1c49        I.      ADDS     r1,r1,#1
        0x00000bf8:    9101        ..      STR      r1,[sp,#4]
        0x00000bfa:    4281        .B      CMP      r1,r0
        0x00000bfc:    dbfa        ..      BLT      0xbf4 ; _printf_core + 428
        0x00000bfe:    9a01        ..      LDR      r2,[sp,#4]
        0x00000c00:    9903        ..      LDR      r1,[sp,#0xc]
        0x00000c02:    5c89        .\      LDRB     r1,[r1,r2]
        0x00000c04:    2900        .)      CMP      r1,#0
        0x00000c06:    d1f5        ..      BNE      0xbf4 ; _printf_core + 428
        0x00000c08:    9901        ..      LDR      r1,[sp,#4]
        0x00000c0a:    9800        ..      LDR      r0,[sp,#0]
        0x00000c0c:    9a13        ..      LDR      r2,[sp,#0x4c]
        0x00000c0e:    1a40        @.      SUBS     r0,r0,r1
        0x00000c10:    9000        ..      STR      r0,[sp,#0]
        0x00000c12:    4621        !F      MOV      r1,r4
        0x00000c14:    9b14        ..      LDR      r3,[sp,#0x50]
        0x00000c16:    f000f93b    ..;.    BL       _printf_pre_padding ; 0xe90
        0x00000c1a:    9901        ..      LDR      r1,[sp,#4]
        0x00000c1c:    1980        ..      ADDS     r0,r0,r6
        0x00000c1e:    1846        F.      ADDS     r6,r0,r1
        0x00000c20:    e007        ..      B        0xc32 ; _printf_core + 490
        0x00000c22:    9803        ..      LDR      r0,[sp,#0xc]
        0x00000c24:    9903        ..      LDR      r1,[sp,#0xc]
        0x00000c26:    7800        .x      LDRB     r0,[r0,#0]
        0x00000c28:    1c49        I.      ADDS     r1,r1,#1
        0x00000c2a:    9103        ..      STR      r1,[sp,#0xc]
        0x00000c2c:    9a14        ..      LDR      r2,[sp,#0x50]
        0x00000c2e:    9913        ..      LDR      r1,[sp,#0x4c]
        0x00000c30:    4790        .G      BLX      r2
        0x00000c32:    9801        ..      LDR      r0,[sp,#4]
        0x00000c34:    1e40        @.      SUBS     r0,r0,#1
        0x00000c36:    9001        ..      STR      r0,[sp,#4]
        0x00000c38:    1c40        @.      ADDS     r0,r0,#1
        0x00000c3a:    d1f2        ..      BNE      0xc22 ; _printf_core + 474
        0x00000c3c:    4621        !F      MOV      r1,r4
        0x00000c3e:    9b14        ..      LDR      r3,[sp,#0x50]
        0x00000c40:    9a13        ..      LDR      r2,[sp,#0x4c]
        0x00000c42:    9800        ..      LDR      r0,[sp,#0]
        0x00000c44:    f000f914    ....    BL       _printf_post_padding ; 0xe70
        0x00000c48:    1986        ..      ADDS     r6,r0,r6
        0x00000c4a:    1c6d        m.      ADDS     r5,r5,#1
        0x00000c4c:    e709        ..      B        0xa62 ; _printf_core + 26
        0x00000c4e:    e041        A.      B        0xcd4 ; _printf_core + 652
        0x00000c50:    e033        3.      B        0xcba ; _printf_core + 626
        0x00000c52:    e034        4.      B        0xcbe ; _printf_core + 630
        0x00000c54:    200a        .       MOVS     r0,#0xa
        0x00000c56:    2100        .!      MOVS     r1,#0
        0x00000c58:    9004        ..      STR      r0,[sp,#0x10]
        0x00000c5a:    9105        ..      STR      r1,[sp,#0x14]
        0x00000c5c:    0260        `.      LSLS     r0,r4,#9
        0x00000c5e:    0f41        A.      LSRS     r1,r0,#29
        0x00000c60:    2902        .)      CMP      r1,#2
        0x00000c62:    d005        ..      BEQ      0xc70 ; _printf_core + 552
        0x00000c64:    cf01        ..      LDM      r7!,{r0}
        0x00000c66:    17c2        ..      ASRS     r2,r0,#31
        0x00000c68:    4694        .F      MOV      r12,r2
        0x00000c6a:    2903        .)      CMP      r1,#3
        0x00000c6c:    d005        ..      BEQ      0xc7a ; _printf_core + 562
        0x00000c6e:    e007        ..      B        0xc80 ; _printf_core + 568
        0x00000c70:    1dff        ..      ADDS     r7,r7,#7
        0x00000c72:    08ff        ..      LSRS     r7,r7,#3
        0x00000c74:    00ff        ..      LSLS     r7,r7,#3
        0x00000c76:    cf03        ..      LDM      r7!,{r0,r1}
        0x00000c78:    e006        ..      B        0xc88 ; _printf_core + 576
        0x00000c7a:    b200        ..      SXTH     r0,r0
        0x00000c7c:    17c2        ..      ASRS     r2,r0,#31
        0x00000c7e:    4694        .F      MOV      r12,r2
        0x00000c80:    2904        .)      CMP      r1,#4
        0x00000c82:    d102        ..      BNE      0xc8a ; _printf_core + 578
        0x00000c84:    b240        @.      SXTB     r0,r0
        0x00000c86:    17c1        ..      ASRS     r1,r0,#31
        0x00000c88:    468c        .F      MOV      r12,r1
        0x00000c8a:    2200        ."      MOVS     r2,#0
        0x00000c8c:    4661        aF      MOV      r1,r12
        0x00000c8e:    4594        .E      CMP      r12,r2
        0x00000c90:    da06        ..      BGE      0xca0 ; _printf_core + 600
        0x00000c92:    460a        .F      MOV      r2,r1
        0x00000c94:    2100        .!      MOVS     r1,#0
        0x00000c96:    4240        @B      RSBS     r0,r0,#0
        0x00000c98:    4191        .A      SBCS     r1,r1,r2
        0x00000c9a:    468c        .F      MOV      r12,r1
        0x00000c9c:    212d        -!      MOVS     r1,#0x2d
        0x00000c9e:    e002        ..      B        0xca6 ; _printf_core + 606
        0x00000ca0:    0521        !.      LSLS     r1,r4,#20
        0x00000ca2:    d504        ..      BPL      0xcae ; _printf_core + 614
        0x00000ca4:    212b        +!      MOVS     r1,#0x2b
        0x00000ca6:    466a        jF      MOV      r2,sp
        0x00000ca8:    7611        .v      STRB     r1,[r2,#0x18]
        0x00000caa:    2101        .!      MOVS     r1,#1
        0x00000cac:    e003        ..      B        0xcb6 ; _printf_core + 622
        0x00000cae:    07e1        ..      LSLS     r1,r4,#31
        0x00000cb0:    d001        ..      BEQ      0xcb6 ; _printf_core + 622
        0x00000cb2:    2120         !      MOVS     r1,#0x20
        0x00000cb4:    e7f7        ..      B        0xca6 ; _printf_core + 606
        0x00000cb6:    9101        ..      STR      r1,[sp,#4]
        0x00000cb8:    e054        T.      B        0xd64 ; _printf_core + 796
        0x00000cba:    200a        .       MOVS     r0,#0xa
        0x00000cbc:    e00b        ..      B        0xcd6 ; _printf_core + 654
        0x00000cbe:    2010        .       MOVS     r0,#0x10
        0x00000cc0:    e009        ..      B        0xcd6 ; _printf_core + 654
        0x00000cc2:    2010        .       MOVS     r0,#0x10
        0x00000cc4:    9004        ..      STR      r0,[sp,#0x10]
        0x00000cc6:    2100        .!      MOVS     r1,#0
        0x00000cc8:    2004        .       MOVS     r0,#4
        0x00000cca:    4304        .C      ORRS     r4,r4,r0
        0x00000ccc:    2008        .       MOVS     r0,#8
        0x00000cce:    9105        ..      STR      r1,[sp,#0x14]
        0x00000cd0:    9002        ..      STR      r0,[sp,#8]
        0x00000cd2:    e003        ..      B        0xcdc ; _printf_core + 660
        0x00000cd4:    2008        .       MOVS     r0,#8
        0x00000cd6:    2100        .!      MOVS     r1,#0
        0x00000cd8:    9105        ..      STR      r1,[sp,#0x14]
        0x00000cda:    9004        ..      STR      r0,[sp,#0x10]
        0x00000cdc:    0260        `.      LSLS     r0,r4,#9
        0x00000cde:    0f41        A.      LSRS     r1,r0,#29
        0x00000ce0:    2902        .)      CMP      r1,#2
        0x00000ce2:    d005        ..      BEQ      0xcf0 ; _printf_core + 680
        0x00000ce4:    cf01        ..      LDM      r7!,{r0}
        0x00000ce6:    2200        ."      MOVS     r2,#0
        0x00000ce8:    4694        .F      MOV      r12,r2
        0x00000cea:    2903        .)      CMP      r1,#3
        0x00000cec:    d006        ..      BEQ      0xcfc ; _printf_core + 692
        0x00000cee:    e006        ..      B        0xcfe ; _printf_core + 694
        0x00000cf0:    1dff        ..      ADDS     r7,r7,#7
        0x00000cf2:    08ff        ..      LSRS     r7,r7,#3
        0x00000cf4:    00ff        ..      LSLS     r7,r7,#3
        0x00000cf6:    cf03        ..      LDM      r7!,{r0,r1}
        0x00000cf8:    468c        .F      MOV      r12,r1
        0x00000cfa:    e003        ..      B        0xd04 ; _printf_core + 700
        0x00000cfc:    b280        ..      UXTH     r0,r0
        0x00000cfe:    2904        .)      CMP      r1,#4
        0x00000d00:    d100        ..      BNE      0xd04 ; _printf_core + 700
        0x00000d02:    b2c0        ..      UXTB     r0,r0
        0x00000d04:    2100        .!      MOVS     r1,#0
        0x00000d06:    9101        ..      STR      r1,[sp,#4]
        0x00000d08:    0721        !.      LSLS     r1,r4,#28
        0x00000d0a:    d52b        +.      BPL      0xd64 ; _printf_core + 796
        0x00000d0c:    9903        ..      LDR      r1,[sp,#0xc]
        0x00000d0e:    2970        p)      CMP      r1,#0x70
        0x00000d10:    d006        ..      BEQ      0xd20 ; _printf_core + 728
        0x00000d12:    9a04        ..      LDR      r2,[sp,#0x10]
        0x00000d14:    2110        .!      MOVS     r1,#0x10
        0x00000d16:    9b05        ..      LDR      r3,[sp,#0x14]
        0x00000d18:    404a        J@      EORS     r2,r2,r1
        0x00000d1a:    431a        .C      ORRS     r2,r2,r3
        0x00000d1c:    d005        ..      BEQ      0xd2a ; _printf_core + 738
        0x00000d1e:    e00e        ..      B        0xd3e ; _printf_core + 758
        0x00000d20:    2140        @!      MOVS     r1,#0x40
        0x00000d22:    466a        jF      MOV      r2,sp
        0x00000d24:    7611        .v      STRB     r1,[r2,#0x18]
        0x00000d26:    2101        .!      MOVS     r1,#1
        0x00000d28:    e008        ..      B        0xd3c ; _printf_core + 756
        0x00000d2a:    4661        aF      MOV      r1,r12
        0x00000d2c:    4301        .C      ORRS     r1,r1,r0
        0x00000d2e:    d006        ..      BEQ      0xd3e ; _printf_core + 758
        0x00000d30:    2130        0!      MOVS     r1,#0x30
        0x00000d32:    466a        jF      MOV      r2,sp
        0x00000d34:    7611        .v      STRB     r1,[r2,#0x18]
        0x00000d36:    9903        ..      LDR      r1,[sp,#0xc]
        0x00000d38:    7651        Qv      STRB     r1,[r2,#0x19]
        0x00000d3a:    2102        .!      MOVS     r1,#2
        0x00000d3c:    9101        ..      STR      r1,[sp,#4]
        0x00000d3e:    9a04        ..      LDR      r2,[sp,#0x10]
        0x00000d40:    2108        .!      MOVS     r1,#8
        0x00000d42:    9b05        ..      LDR      r3,[sp,#0x14]
        0x00000d44:    404a        J@      EORS     r2,r2,r1
        0x00000d46:    431a        .C      ORRS     r2,r2,r3
        0x00000d48:    d10c        ..      BNE      0xd64 ; _printf_core + 796
        0x00000d4a:    4661        aF      MOV      r1,r12
        0x00000d4c:    4301        .C      ORRS     r1,r1,r0
        0x00000d4e:    d101        ..      BNE      0xd54 ; _printf_core + 780
        0x00000d50:    0761        a.      LSLS     r1,r4,#29
        0x00000d52:    d507        ..      BPL      0xd64 ; _printf_core + 796
        0x00000d54:    2130        0!      MOVS     r1,#0x30
        0x00000d56:    466a        jF      MOV      r2,sp
        0x00000d58:    7611        .v      STRB     r1,[r2,#0x18]
        0x00000d5a:    2101        .!      MOVS     r1,#1
        0x00000d5c:    9101        ..      STR      r1,[sp,#4]
        0x00000d5e:    9902        ..      LDR      r1,[sp,#8]
        0x00000d60:    1e49        I.      SUBS     r1,r1,#1
        0x00000d62:    9102        ..      STR      r1,[sp,#8]
        0x00000d64:    9903        ..      LDR      r1,[sp,#0xc]
        0x00000d66:    2958        X)      CMP      r1,#0x58
        0x00000d68:    d004        ..      BEQ      0xd74 ; _printf_core + 812
        0x00000d6a:    a137        7.      ADR      r1,{pc}+0xde ; 0xe48
        0x00000d6c:    9103        ..      STR      r1,[sp,#0xc]
        0x00000d6e:    a90f        ..      ADD      r1,sp,#0x3c
        0x00000d70:    910f        ..      STR      r1,[sp,#0x3c]
        0x00000d72:    e00d        ..      B        0xd90 ; _printf_core + 840
        0x00000d74:    a139        9.      ADR      r1,{pc}+0xe8 ; 0xe5c
        0x00000d76:    e7f9        ..      B        0xd6c ; _printf_core + 804
        0x00000d78:    4661        aF      MOV      r1,r12
        0x00000d7a:    9b05        ..      LDR      r3,[sp,#0x14]
        0x00000d7c:    9a04        ..      LDR      r2,[sp,#0x10]
        0x00000d7e:    f7fffa5b    ..[.    BL       __aeabi_uldivmod ; 0x238
        0x00000d82:    9b03        ..      LDR      r3,[sp,#0xc]
        0x00000d84:    468c        .F      MOV      r12,r1
        0x00000d86:    5c9b        .\      LDRB     r3,[r3,r2]
        0x00000d88:    9a0f        ..      LDR      r2,[sp,#0x3c]
        0x00000d8a:    1e52        R.      SUBS     r2,r2,#1
        0x00000d8c:    920f        ..      STR      r2,[sp,#0x3c]
        0x00000d8e:    7013        .p      STRB     r3,[r2,#0]
        0x00000d90:    4661        aF      MOV      r1,r12
        0x00000d92:    4301        .C      ORRS     r1,r1,r0
        0x00000d94:    d1f0        ..      BNE      0xd78 ; _printf_core + 816
        0x00000d96:    980f        ..      LDR      r0,[sp,#0x3c]
        0x00000d98:    a907        ..      ADD      r1,sp,#0x1c
        0x00000d9a:    1a08        ..      SUBS     r0,r1,r0
        0x00000d9c:    3020         0      ADDS     r0,r0,#0x20
        0x00000d9e:    9003        ..      STR      r0,[sp,#0xc]
        0x00000da0:    0760        `.      LSLS     r0,r4,#29
        0x00000da2:    d504        ..      BPL      0xdae ; _printf_core + 870
        0x00000da4:    2001        .       MOVS     r0,#1
        0x00000da6:    0400        ..      LSLS     r0,r0,#16
        0x00000da8:    4384        .C      BICS     r4,r4,r0
        0x00000daa:    9802        ..      LDR      r0,[sp,#8]
        0x00000dac:    e001        ..      B        0xdb2 ; _printf_core + 874
        0x00000dae:    2001        .       MOVS     r0,#1
        0x00000db0:    9002        ..      STR      r0,[sp,#8]
        0x00000db2:    9903        ..      LDR      r1,[sp,#0xc]
        0x00000db4:    4288        .B      CMP      r0,r1
        0x00000db6:    dd01        ..      BLE      0xdbc ; _printf_core + 884
        0x00000db8:    1a40        @.      SUBS     r0,r0,r1
        0x00000dba:    e000        ..      B        0xdbe ; _printf_core + 886
        0x00000dbc:    2000        .       MOVS     r0,#0
        0x00000dbe:    1841        A.      ADDS     r1,r0,r1
        0x00000dc0:    9002        ..      STR      r0,[sp,#8]
        0x00000dc2:    9801        ..      LDR      r0,[sp,#4]
        0x00000dc4:    1809        ..      ADDS     r1,r1,r0
        0x00000dc6:    9800        ..      LDR      r0,[sp,#0]
        0x00000dc8:    1a40        @.      SUBS     r0,r0,r1
        0x00000dca:    9000        ..      STR      r0,[sp,#0]
        0x00000dcc:    03e0        ..      LSLS     r0,r4,#15
        0x00000dce:    d406        ..      BMI      0xdde ; _printf_core + 918
        0x00000dd0:    4621        !F      MOV      r1,r4
        0x00000dd2:    9b14        ..      LDR      r3,[sp,#0x50]
        0x00000dd4:    9a13        ..      LDR      r2,[sp,#0x4c]
        0x00000dd6:    9800        ..      LDR      r0,[sp,#0]
        0x00000dd8:    f000f85a    ..Z.    BL       _printf_pre_padding ; 0xe90
        0x00000ddc:    1986        ..      ADDS     r6,r0,r6
        0x00000dde:    2000        .       MOVS     r0,#0
        0x00000de0:    9004        ..      STR      r0,[sp,#0x10]
        0x00000de2:    e008        ..      B        0xdf6 ; _printf_core + 942
        0x00000de4:    a906        ..      ADD      r1,sp,#0x18
        0x00000de6:    5c08        .\      LDRB     r0,[r1,r0]
        0x00000de8:    9a14        ..      LDR      r2,[sp,#0x50]
        0x00000dea:    9913        ..      LDR      r1,[sp,#0x4c]
        0x00000dec:    4790        .G      BLX      r2
        0x00000dee:    9804        ..      LDR      r0,[sp,#0x10]
        0x00000df0:    1c40        @.      ADDS     r0,r0,#1
        0x00000df2:    1c76        v.      ADDS     r6,r6,#1
        0x00000df4:    9004        ..      STR      r0,[sp,#0x10]
        0x00000df6:    9901        ..      LDR      r1,[sp,#4]
        0x00000df8:    4288        .B      CMP      r0,r1
        0x00000dfa:    dbf3        ..      BLT      0xde4 ; _printf_core + 924
        0x00000dfc:    03e0        ..      LSLS     r0,r4,#15
        0x00000dfe:    d50c        ..      BPL      0xe1a ; _printf_core + 978
        0x00000e00:    4621        !F      MOV      r1,r4
        0x00000e02:    9b14        ..      LDR      r3,[sp,#0x50]
        0x00000e04:    9a13        ..      LDR      r2,[sp,#0x4c]
        0x00000e06:    9800        ..      LDR      r0,[sp,#0]
        0x00000e08:    f000f842    ..B.    BL       _printf_pre_padding ; 0xe90
        0x00000e0c:    1986        ..      ADDS     r6,r0,r6
        0x00000e0e:    e004        ..      B        0xe1a ; _printf_core + 978
        0x00000e10:    9a14        ..      LDR      r2,[sp,#0x50]
        0x00000e12:    2030        0       MOVS     r0,#0x30
        0x00000e14:    9913        ..      LDR      r1,[sp,#0x4c]
        0x00000e16:    4790        .G      BLX      r2
        0x00000e18:    1c76        v.      ADDS     r6,r6,#1
        0x00000e1a:    9902        ..      LDR      r1,[sp,#8]
        0x00000e1c:    1e48        H.      SUBS     r0,r1,#1
        0x00000e1e:    9002        ..      STR      r0,[sp,#8]
        0x00000e20:    2900        .)      CMP      r1,#0
        0x00000e22:    dcf5        ..      BGT      0xe10 ; _printf_core + 968
        0x00000e24:    e008        ..      B        0xe38 ; _printf_core + 1008
        0x00000e26:    980f        ..      LDR      r0,[sp,#0x3c]
        0x00000e28:    990f        ..      LDR      r1,[sp,#0x3c]
        0x00000e2a:    7800        .x      LDRB     r0,[r0,#0]
        0x00000e2c:    1c49        I.      ADDS     r1,r1,#1
        0x00000e2e:    910f        ..      STR      r1,[sp,#0x3c]
        0x00000e30:    9a14        ..      LDR      r2,[sp,#0x50]
        0x00000e32:    9913        ..      LDR      r1,[sp,#0x4c]
        0x00000e34:    4790        .G      BLX      r2
        0x00000e36:    1c76        v.      ADDS     r6,r6,#1
        0x00000e38:    9903        ..      LDR      r1,[sp,#0xc]
        0x00000e3a:    1e48        H.      SUBS     r0,r1,#1
        0x00000e3c:    9003        ..      STR      r0,[sp,#0xc]
        0x00000e3e:    2900        .)      CMP      r1,#0
        0x00000e40:    dcf1        ..      BGT      0xe26 ; _printf_core + 990
        0x00000e42:    e6fb        ..      B        0xc3c ; _printf_core + 500
    $d
        0x00000e44:    00012809    .(..    DCD    75785
        0x00000e48:    33323130    0123    DCD    858927408
        0x00000e4c:    37363534    4567    DCD    926299444
        0x00000e50:    62613938    89ab    DCD    1650538808
        0x00000e54:    66656463    cdef    DCD    1717920867
        0x00000e58:    00000000    ....    DCD    0
        0x00000e5c:    33323130    0123    DCD    858927408
        0x00000e60:    37363534    4567    DCD    926299444
        0x00000e64:    42413938    89AB    DCD    1111570744
        0x00000e68:    46454443    CDEF    DCD    1178944579
        0x00000e6c:    00000000    ....    DCD    0
    $t
    i._printf_post_padding
    _printf_post_padding
        0x00000e70:    b5f8        ..      PUSH     {r3-r7,lr}
        0x00000e72:    4604        .F      MOV      r4,r0
        0x00000e74:    2500        .%      MOVS     r5,#0
        0x00000e76:    461e        .F      MOV      r6,r3
        0x00000e78:    4617        .F      MOV      r7,r2
        0x00000e7a:    0488        ..      LSLS     r0,r1,#18
        0x00000e7c:    d404        ..      BMI      0xe88 ; _printf_post_padding + 24
        0x00000e7e:    e005        ..      B        0xe8c ; _printf_post_padding + 28
        0x00000e80:    4639        9F      MOV      r1,r7
        0x00000e82:    2020                MOVS     r0,#0x20
        0x00000e84:    47b0        .G      BLX      r6
        0x00000e86:    1c6d        m.      ADDS     r5,r5,#1
        0x00000e88:    1e64        d.      SUBS     r4,r4,#1
        0x00000e8a:    d5f9        ..      BPL      0xe80 ; _printf_post_padding + 16
        0x00000e8c:    4628        (F      MOV      r0,r5
        0x00000e8e:    bdf8        ..      POP      {r3-r7,pc}
    i._printf_pre_padding
    _printf_pre_padding
        0x00000e90:    b5ff        ..      PUSH     {r0-r7,lr}
        0x00000e92:    4604        .F      MOV      r4,r0
        0x00000e94:    2500        .%      MOVS     r5,#0
        0x00000e96:    b081        ..      SUB      sp,sp,#4
        0x00000e98:    461e        .F      MOV      r6,r3
        0x00000e9a:    03c8        ..      LSLS     r0,r1,#15
        0x00000e9c:    d501        ..      BPL      0xea2 ; _printf_pre_padding + 18
        0x00000e9e:    2730        0'      MOVS     r7,#0x30
        0x00000ea0:    e000        ..      B        0xea4 ; _printf_pre_padding + 20
        0x00000ea2:    2720         '      MOVS     r7,#0x20
        0x00000ea4:    0488        ..      LSLS     r0,r1,#18
        0x00000ea6:    d504        ..      BPL      0xeb2 ; _printf_pre_padding + 34
        0x00000ea8:    e005        ..      B        0xeb6 ; _printf_pre_padding + 38
        0x00000eaa:    4638        8F      MOV      r0,r7
        0x00000eac:    9903        ..      LDR      r1,[sp,#0xc]
        0x00000eae:    47b0        .G      BLX      r6
        0x00000eb0:    1c6d        m.      ADDS     r5,r5,#1
        0x00000eb2:    1e64        d.      SUBS     r4,r4,#1
        0x00000eb4:    d5f9        ..      BPL      0xeaa ; _printf_pre_padding + 26
        0x00000eb6:    4628        (F      MOV      r0,r5
        0x00000eb8:    b005        ..      ADD      sp,sp,#0x14
        0x00000eba:    bdf0        ..      POP      {r4-r7,pc}
    i.fputc
    fputc
        0x00000ebc:    b510        ..      PUSH     {r4,lr}
        0x00000ebe:    4604        .F      MOV      r4,r0
        0x00000ec0:    f7fffb80    ....    BL       SendChar ; 0x5c4
        0x00000ec4:    4620         F      MOV      r0,r4
        0x00000ec6:    bd10        ..      POP      {r4,pc}
    i.main
    main
        0x00000ec8:    b51c        ..      PUSH     {r2-r4,lr}
        0x00000eca:    f7fffb2f    ../.    BL       SYS_Init ; 0x52c
        0x00000ece:    f7fffc89    ....    BL       UART0_Init ; 0x7e4
        0x00000ed2:    f7fffbff    ....    BL       TIMER3_Init ; 0x6d4
        0x00000ed6:    2400        .$      MOVS     r4,#0
        0x00000ed8:    9400        ..      STR      r4,[sp,#0]
        0x00000eda:    4623        #F      MOV      r3,r4
        0x00000edc:    2280        ."      MOVS     r2,#0x80
        0x00000ede:    a10c        ..      ADR      r1,{pc}+0x32 ; 0xf10
        0x00000ee0:    480e        .H      LDR      r0,[pc,#56] ; [0xf1c] = 0x196d
        0x00000ee2:    9401        ..      STR      r4,[sp,#4]
        0x00000ee4:    f001f8b0    ....    BL       xTaskCreate ; 0x2048
        0x00000ee8:    9400        ..      STR      r4,[sp,#0]
        0x00000eea:    2300        .#      MOVS     r3,#0
        0x00000eec:    2280        ."      MOVS     r2,#0x80
        0x00000eee:    a10c        ..      ADR      r1,{pc}+0x32 ; 0xf20
        0x00000ef0:    480e        .H      LDR      r0,[pc,#56] ; [0xf2c] = 0x1a69
        0x00000ef2:    9401        ..      STR      r4,[sp,#4]
        0x00000ef4:    f001f8a8    ....    BL       xTaskCreate ; 0x2048
        0x00000ef8:    9400        ..      STR      r4,[sp,#0]
        0x00000efa:    2300        .#      MOVS     r3,#0
        0x00000efc:    2280        ."      MOVS     r2,#0x80
        0x00000efe:    a10c        ..      ADR      r1,{pc}+0x32 ; 0xf30
        0x00000f00:    480e        .H      LDR      r0,[pc,#56] ; [0xf3c] = 0x19e9
        0x00000f02:    9401        ..      STR      r4,[sp,#4]
        0x00000f04:    f001f8a0    ....    BL       xTaskCreate ; 0x2048
        0x00000f08:    f000fe1e    ....    BL       vTaskStartScheduler ; 0x1b48
        0x00000f0c:    e7fe        ..      B        0xf0c ; main + 68
    $d
        0x00000f0e:    0000        ..      DCW    0
        0x00000f10:    4d676f4c    LogM    DCD    1298624332
        0x00000f14:    73316773    sg1s    DCD    1932617587
        0x00000f18:    00000000    ....    DCD    0
        0x00000f1c:    0000196d    m...    DCD    6509
        0x00000f20:    4d676f4c    LogM    DCD    1298624332
        0x00000f24:    73356773    sg5s    DCD    1932879731
        0x00000f28:    00000000    ....    DCD    0
        0x00000f2c:    00001a69    i...    DCD    6761
        0x00000f30:    4d676f4c    LogM    DCD    1298624332
        0x00000f34:    30356773    sg50    DCD    808806259
        0x00000f38:    00736d30    0ms.    DCD    7564592
        0x00000f3c:    000019e9    ....    DCD    6633
    $t
    i.prvAddCurrentTaskToDelayedList
    prvAddCurrentTaskToDelayedList
        0x00000f40:    b5f8        ..      PUSH     {r3-r7,lr}
        0x00000f42:    4e13        .N      LDR      r6,[pc,#76] ; [0xf90] = 0x20000020
        0x00000f44:    460f        .F      MOV      r7,r1
        0x00000f46:    68f5        .h      LDR      r5,[r6,#0xc]
        0x00000f48:    4604        .F      MOV      r4,r0
        0x00000f4a:    6830        0h      LDR      r0,[r6,#0]
        0x00000f4c:    1d00        ..      ADDS     r0,r0,#4
        0x00000f4e:    f000fc0d    ....    BL       uxListRemove ; 0x176c
        0x00000f52:    1c60        `.      ADDS     r0,r4,#1
        0x00000f54:    d107        ..      BNE      0xf66 ; prvAddCurrentTaskToDelayedList + 38
        0x00000f56:    2f00        ./      CMP      r7,#0
        0x00000f58:    d005        ..      BEQ      0xf66 ; prvAddCurrentTaskToDelayedList + 38
        0x00000f5a:    6831        1h      LDR      r1,[r6,#0]
        0x00000f5c:    480d        .H      LDR      r0,[pc,#52] ; [0xf94] = 0x20000180
        0x00000f5e:    1d09        ..      ADDS     r1,r1,#4
        0x00000f60:    f000fc42    ..B.    BL       vListInsertEnd ; 0x17e8
        0x00000f64:    bdf8        ..      POP      {r3-r7,pc}
        0x00000f66:    6830        0h      LDR      r0,[r6,#0]
        0x00000f68:    192c        ,.      ADDS     r4,r5,r4
        0x00000f6a:    6044        D`      STR      r4,[r0,#4]
        0x00000f6c:    6831        1h      LDR      r1,[r6,#0]
        0x00000f6e:    42ac        .B      CMP      r4,r5
        0x00000f70:    d204        ..      BCS      0xf7c ; prvAddCurrentTaskToDelayedList + 60
        0x00000f72:    6bb0        .k      LDR      r0,[r6,#0x38]
        0x00000f74:    1d09        ..      ADDS     r1,r1,#4
        0x00000f76:    f000fc1f    ....    BL       vListInsert ; 0x17b8
        0x00000f7a:    bdf8        ..      POP      {r3-r7,pc}
        0x00000f7c:    6b70        pk      LDR      r0,[r6,#0x34]
        0x00000f7e:    1d09        ..      ADDS     r1,r1,#4
        0x00000f80:    f000fc1a    ....    BL       vListInsert ; 0x17b8
        0x00000f84:    6ab0        .j      LDR      r0,[r6,#0x28]
        0x00000f86:    4284        .B      CMP      r4,r0
        0x00000f88:    d2f7        ..      BCS      0xf7a ; prvAddCurrentTaskToDelayedList + 58
        0x00000f8a:    62b4        .b      STR      r4,[r6,#0x28]
        0x00000f8c:    bdf8        ..      POP      {r3-r7,pc}
    $d
        0x00000f8e:    0000        ..      DCW    0
        0x00000f90:    20000020     ..     DCD    536870944
        0x00000f94:    20000180    ...     DCD    536871296
    $t
    i.prvAddNewTaskToReadyList
    prvAddNewTaskToReadyList
        0x00000f98:    b5f8        ..      PUSH     {r3-r7,lr}
        0x00000f9a:    4605        .F      MOV      r5,r0
        0x00000f9c:    f000fc30    ..0.    BL       vPortEnterCritical ; 0x1800
        0x00000fa0:    4e2a        *N      LDR      r6,[pc,#168] ; [0x104c] = 0x20000020
        0x00000fa2:    68b0        .h      LDR      r0,[r6,#8]
        0x00000fa4:    1c40        @.      ADDS     r0,r0,#1
        0x00000fa6:    60b0        .`      STR      r0,[r6,#8]
        0x00000fa8:    6830        0h      LDR      r0,[r6,#0]
        0x00000faa:    4f29        )O      LDR      r7,[pc,#164] ; [0x1050] = 0x200000cc
        0x00000fac:    2800        .(      CMP      r0,#0
        0x00000fae:    d003        ..      BEQ      0xfb8 ; prvAddNewTaskToReadyList + 32
        0x00000fb0:    6970        pi      LDR      r0,[r6,#0x14]
        0x00000fb2:    2800        .(      CMP      r0,#0
        0x00000fb4:    d027        '.      BEQ      0x1006 ; prvAddNewTaskToReadyList + 110
        0x00000fb6:    e02c        ,.      B        0x1012 ; prvAddNewTaskToReadyList + 122
        0x00000fb8:    6035        5`      STR      r5,[r6,#0]
        0x00000fba:    68b0        .h      LDR      r0,[r6,#8]
        0x00000fbc:    2801        .(      CMP      r0,#1
        0x00000fbe:    d128        (.      BNE      0x1012 ; prvAddNewTaskToReadyList + 122
        0x00000fc0:    2400        .$      MOVS     r4,#0
        0x00000fc2:    2014        .       MOVS     r0,#0x14
        0x00000fc4:    4360        `C      MULS     r0,r4,r0
        0x00000fc6:    19c0        ..      ADDS     r0,r0,r7
        0x00000fc8:    f000fbe8    ....    BL       vListInitialise ; 0x179c
        0x00000fcc:    1c64        d.      ADDS     r4,r4,#1
        0x00000fce:    2c05        .,      CMP      r4,#5
        0x00000fd0:    d3f7        ..      BCC      0xfc2 ; prvAddNewTaskToReadyList + 42
        0x00000fd2:    481f        .H      LDR      r0,[pc,#124] ; [0x1050] = 0x200000cc
        0x00000fd4:    3064        d0      ADDS     r0,r0,#0x64
        0x00000fd6:    f000fbe1    ....    BL       vListInitialise ; 0x179c
        0x00000fda:    481d        .H      LDR      r0,[pc,#116] ; [0x1050] = 0x200000cc
        0x00000fdc:    3078        x0      ADDS     r0,r0,#0x78
        0x00000fde:    f000fbdd    ....    BL       vListInitialise ; 0x179c
        0x00000fe2:    481b        .H      LDR      r0,[pc,#108] ; [0x1050] = 0x200000cc
        0x00000fe4:    308c        .0      ADDS     r0,r0,#0x8c
        0x00000fe6:    f000fbd9    ....    BL       vListInitialise ; 0x179c
        0x00000fea:    4819        .H      LDR      r0,[pc,#100] ; [0x1050] = 0x200000cc
        0x00000fec:    30a0        .0      ADDS     r0,r0,#0xa0
        0x00000fee:    f000fbd5    ....    BL       vListInitialise ; 0x179c
        0x00000ff2:    4817        .H      LDR      r0,[pc,#92] ; [0x1050] = 0x200000cc
        0x00000ff4:    30b4        .0      ADDS     r0,r0,#0xb4
        0x00000ff6:    f000fbd1    ....    BL       vListInitialise ; 0x179c
        0x00000ffa:    4815        .H      LDR      r0,[pc,#84] ; [0x1050] = 0x200000cc
        0x00000ffc:    3064        d0      ADDS     r0,r0,#0x64
        0x00000ffe:    6370        pc      STR      r0,[r6,#0x34]
        0x00001000:    3014        .0      ADDS     r0,r0,#0x14
        0x00001002:    63b0        .c      STR      r0,[r6,#0x38]
        0x00001004:    e005        ..      B        0x1012 ; prvAddNewTaskToReadyList + 122
        0x00001006:    6830        0h      LDR      r0,[r6,#0]
        0x00001008:    6ae9        .j      LDR      r1,[r5,#0x2c]
        0x0000100a:    6ac0        .j      LDR      r0,[r0,#0x2c]
        0x0000100c:    4288        .B      CMP      r0,r1
        0x0000100e:    d800        ..      BHI      0x1012 ; prvAddNewTaskToReadyList + 122
        0x00001010:    6035        5`      STR      r5,[r6,#0]
        0x00001012:    6a70        pj      LDR      r0,[r6,#0x24]
        0x00001014:    1c40        @.      ADDS     r0,r0,#1
        0x00001016:    6270        pb      STR      r0,[r6,#0x24]
        0x00001018:    6468        hd      STR      r0,[r5,#0x44]
        0x0000101a:    6ae8        .j      LDR      r0,[r5,#0x2c]
        0x0000101c:    6931        1i      LDR      r1,[r6,#0x10]
        0x0000101e:    4288        .B      CMP      r0,r1
        0x00001020:    d900        ..      BLS      0x1024 ; prvAddNewTaskToReadyList + 140
        0x00001022:    6130        0a      STR      r0,[r6,#0x10]
        0x00001024:    2114        .!      MOVS     r1,#0x14
        0x00001026:    4348        HC      MULS     r0,r1,r0
        0x00001028:    19c0        ..      ADDS     r0,r0,r7
        0x0000102a:    1d29        ).      ADDS     r1,r5,#4
        0x0000102c:    f000fbdc    ....    BL       vListInsertEnd ; 0x17e8
        0x00001030:    f000fbf2    ....    BL       vPortExitCritical ; 0x1818
        0x00001034:    6970        pi      LDR      r0,[r6,#0x14]
        0x00001036:    2800        .(      CMP      r0,#0
        0x00001038:    d006        ..      BEQ      0x1048 ; prvAddNewTaskToReadyList + 176
        0x0000103a:    6830        0h      LDR      r0,[r6,#0]
        0x0000103c:    6ae9        .j      LDR      r1,[r5,#0x2c]
        0x0000103e:    6ac0        .j      LDR      r0,[r0,#0x2c]
        0x00001040:    4288        .B      CMP      r0,r1
        0x00001042:    d201        ..      BCS      0x1048 ; prvAddNewTaskToReadyList + 176
        0x00001044:    f000fc18    ....    BL       vPortYield ; 0x1878
        0x00001048:    bdf8        ..      POP      {r3-r7,pc}
    $d
        0x0000104a:    0000        ..      DCW    0
        0x0000104c:    20000020     ..     DCD    536870944
        0x00001050:    200000cc    ...     DCD    536871116
    $t
    i.prvCheckForValidListAndQueue
    prvCheckForValidListAndQueue
        0x00001054:    b510        ..      PUSH     {r4,lr}
        0x00001056:    f000fbd3    ....    BL       vPortEnterCritical ; 0x1800
        0x0000105a:    4c0e        .L      LDR      r4,[pc,#56] ; [0x1094] = 0x2000005c
        0x0000105c:    6820         h      LDR      r0,[r4,#0]
        0x0000105e:    2800        .(      CMP      r0,#0
        0x00001060:    d115        ..      BNE      0x108e ; prvCheckForValidListAndQueue + 58
        0x00001062:    480d        .H      LDR      r0,[pc,#52] ; [0x1098] = 0x20000194
        0x00001064:    f000fb9a    ....    BL       vListInitialise ; 0x179c
        0x00001068:    480b        .H      LDR      r0,[pc,#44] ; [0x1098] = 0x20000194
        0x0000106a:    3014        .0      ADDS     r0,r0,#0x14
        0x0000106c:    f000fb96    ....    BL       vListInitialise ; 0x179c
        0x00001070:    4809        .H      LDR      r0,[pc,#36] ; [0x1098] = 0x20000194
        0x00001072:    60e0        .`      STR      r0,[r4,#0xc]
        0x00001074:    3014        .0      ADDS     r0,r0,#0x14
        0x00001076:    6120         a      STR      r0,[r4,#0x10]
        0x00001078:    2200        ."      MOVS     r2,#0
        0x0000107a:    210c        .!      MOVS     r1,#0xc
        0x0000107c:    200a        .       MOVS     r0,#0xa
        0x0000107e:    f000fe05    ....    BL       xQueueGenericCreate ; 0x1c8c
        0x00001082:    6020         `      STR      r0,[r4,#0]
        0x00001084:    2800        .(      CMP      r0,#0
        0x00001086:    d002        ..      BEQ      0x108e ; prvCheckForValidListAndQueue + 58
        0x00001088:    a104        ..      ADR      r1,{pc}+0x14 ; 0x109c
        0x0000108a:    f000fc01    ....    BL       vQueueAddToRegistry ; 0x1890
        0x0000108e:    f000fbc3    ....    BL       vPortExitCritical ; 0x1818
        0x00001092:    bd10        ..      POP      {r4,pc}
    $d
        0x00001094:    2000005c    \..     DCD    536871004
        0x00001098:    20000194    ...     DCD    536871316
        0x0000109c:    51726d54    TmrQ    DCD    1366453588
        0x000010a0:    00000000    ....    DCD    0
    $t
    i.prvCopyDataFromQueue
    prvCopyDataFromQueue
        0x000010a4:    b510        ..      PUSH     {r4,lr}
        0x000010a6:    6c02        .l      LDR      r2,[r0,#0x40]
        0x000010a8:    460c        .F      MOV      r4,r1
        0x000010aa:    2a00        .*      CMP      r2,#0
        0x000010ac:    d00c        ..      BEQ      0x10c8 ; prvCopyDataFromQueue + 36
        0x000010ae:    68c1        .h      LDR      r1,[r0,#0xc]
        0x000010b0:    188b        ..      ADDS     r3,r1,r2
        0x000010b2:    60c3        .`      STR      r3,[r0,#0xc]
        0x000010b4:    6881        .h      LDR      r1,[r0,#8]
        0x000010b6:    428b        .B      CMP      r3,r1
        0x000010b8:    d201        ..      BCS      0x10be ; prvCopyDataFromQueue + 26
        0x000010ba:    4619        .F      MOV      r1,r3
        0x000010bc:    e001        ..      B        0x10c2 ; prvCopyDataFromQueue + 30
        0x000010be:    6801        .h      LDR      r1,[r0,#0]
        0x000010c0:    60c1        .`      STR      r1,[r0,#0xc]
        0x000010c2:    4620         F      MOV      r0,r4
        0x000010c4:    f7fff894    ....    BL       __aeabi_memcpy ; 0x1f0
        0x000010c8:    bd10        ..      POP      {r4,pc}
    i.prvCopyDataToQueue
    prvCopyDataToQueue
        0x000010ca:    b5f8        ..      PUSH     {r3-r7,lr}
        0x000010cc:    6b85        .k      LDR      r5,[r0,#0x38]
        0x000010ce:    4617        .F      MOV      r7,r2
        0x000010d0:    4604        .F      MOV      r4,r0
        0x000010d2:    2600        .&      MOVS     r6,#0
        0x000010d4:    6c02        .l      LDR      r2,[r0,#0x40]
        0x000010d6:    2a00        .*      CMP      r2,#0
        0x000010d8:    d011        ..      BEQ      0x10fe ; prvCopyDataToQueue + 52
        0x000010da:    2f00        ./      CMP      r7,#0
        0x000010dc:    d019        ..      BEQ      0x1112 ; prvCopyDataToQueue + 72
        0x000010de:    68e0        .h      LDR      r0,[r4,#0xc]
        0x000010e0:    f7fff886    ....    BL       __aeabi_memcpy ; 0x1f0
        0x000010e4:    68e1        .h      LDR      r1,[r4,#0xc]
        0x000010e6:    6c20         l      LDR      r0,[r4,#0x40]
        0x000010e8:    1a09        ..      SUBS     r1,r1,r0
        0x000010ea:    60e1        .`      STR      r1,[r4,#0xc]
        0x000010ec:    6822        "h      LDR      r2,[r4,#0]
        0x000010ee:    4291        .B      CMP      r1,r2
        0x000010f0:    d202        ..      BCS      0x10f8 ; prvCopyDataToQueue + 46
        0x000010f2:    68a1        .h      LDR      r1,[r4,#8]
        0x000010f4:    1a08        ..      SUBS     r0,r1,r0
        0x000010f6:    60e0        .`      STR      r0,[r4,#0xc]
        0x000010f8:    2f02        ./      CMP      r7,#2
        0x000010fa:    d017        ..      BEQ      0x112c ; prvCopyDataToQueue + 98
        0x000010fc:    e019        ..      B        0x1132 ; prvCopyDataToQueue + 104
        0x000010fe:    6820         h      LDR      r0,[r4,#0]
        0x00001100:    2800        .(      CMP      r0,#0
        0x00001102:    d116        ..      BNE      0x1132 ; prvCopyDataToQueue + 104
        0x00001104:    68a0        .h      LDR      r0,[r4,#8]
        0x00001106:    f001f841    ..A.    BL       xTaskPriorityDisinherit ; 0x218c
        0x0000110a:    4606        .F      MOV      r6,r0
        0x0000110c:    2000        .       MOVS     r0,#0
        0x0000110e:    60a0        .`      STR      r0,[r4,#8]
        0x00001110:    e00f        ..      B        0x1132 ; prvCopyDataToQueue + 104
        0x00001112:    6860        `h      LDR      r0,[r4,#4]
        0x00001114:    f7fff86c    ..l.    BL       __aeabi_memcpy ; 0x1f0
        0x00001118:    6c21        !l      LDR      r1,[r4,#0x40]
        0x0000111a:    6860        `h      LDR      r0,[r4,#4]
        0x0000111c:    1840        @.      ADDS     r0,r0,r1
        0x0000111e:    6060        ``      STR      r0,[r4,#4]
        0x00001120:    68a1        .h      LDR      r1,[r4,#8]
        0x00001122:    4288        .B      CMP      r0,r1
        0x00001124:    d305        ..      BCC      0x1132 ; prvCopyDataToQueue + 104
        0x00001126:    6820         h      LDR      r0,[r4,#0]
        0x00001128:    6060        ``      STR      r0,[r4,#4]
        0x0000112a:    e002        ..      B        0x1132 ; prvCopyDataToQueue + 104
        0x0000112c:    2d00        .-      CMP      r5,#0
        0x0000112e:    d000        ..      BEQ      0x1132 ; prvCopyDataToQueue + 104
        0x00001130:    1e6d        m.      SUBS     r5,r5,#1
        0x00001132:    1c6d        m.      ADDS     r5,r5,#1
        0x00001134:    63a5        .c      STR      r5,[r4,#0x38]
        0x00001136:    4630        0F      MOV      r0,r6
        0x00001138:    bdf8        ..      POP      {r3-r7,pc}
    i.prvDeleteTCB
    prvDeleteTCB
        0x0000113a:    b510        ..      PUSH     {r4,lr}
        0x0000113c:    4604        .F      MOV      r4,r0
        0x0000113e:    6b00        .k      LDR      r0,[r0,#0x30]
        0x00001140:    f000fb78    ..x.    BL       vPortFree ; 0x1834
        0x00001144:    4620         F      MOV      r0,r4
        0x00001146:    f000fb75    ..u.    BL       vPortFree ; 0x1834
        0x0000114a:    bd10        ..      POP      {r4,pc}
    i.prvHeapInit
    prvHeapInit
        0x0000114c:    2105        .!      MOVS     r1,#5
        0x0000114e:    480e        .H      LDR      r0,[pc,#56] ; [0x1188] = 0x200001bc
        0x00001150:    02c9        ..      LSLS     r1,r1,#11
        0x00001152:    0742        B.      LSLS     r2,r0,#29
        0x00001154:    d005        ..      BEQ      0x1162 ; prvHeapInit + 22
        0x00001156:    1dc0        ..      ADDS     r0,r0,#7
        0x00001158:    08c0        ..      LSRS     r0,r0,#3
        0x0000115a:    4a0b        .J      LDR      r2,[pc,#44] ; [0x1188] = 0x200001bc
        0x0000115c:    00c0        ..      LSLS     r0,r0,#3
        0x0000115e:    1a82        ..      SUBS     r2,r0,r2
        0x00001160:    1a89        ..      SUBS     r1,r1,r2
        0x00001162:    4b0a        .K      LDR      r3,[pc,#40] ; [0x118c] = 0x20000084
        0x00001164:    2200        ."      MOVS     r2,#0
        0x00001166:    1841        A.      ADDS     r1,r0,r1
        0x00001168:    c305        ..      STM      r3!,{r0,r2}
        0x0000116a:    3908        .9      SUBS     r1,r1,#8
        0x0000116c:    08c9        ..      LSRS     r1,r1,#3
        0x0000116e:    00c9        ..      LSLS     r1,r1,#3
        0x00001170:    3b18        .;      SUBS     r3,r3,#0x18
        0x00001172:    6019        .`      STR      r1,[r3,#0]
        0x00001174:    604a        J`      STR      r2,[r1,#4]
        0x00001176:    600a        .`      STR      r2,[r1,#0]
        0x00001178:    1a0a        ..      SUBS     r2,r1,r0
        0x0000117a:    c006        ..      STM      r0!,{r1,r2}
        0x0000117c:    609a        .`      STR      r2,[r3,#8]
        0x0000117e:    2001        .       MOVS     r0,#1
        0x00001180:    07c0        ..      LSLS     r0,r0,#31
        0x00001182:    605a        Z`      STR      r2,[r3,#4]
        0x00001184:    60d8        .`      STR      r0,[r3,#0xc]
        0x00001186:    4770        pG      BX       lr
    $d
        0x00001188:    200001bc    ...     DCD    536871356
        0x0000118c:    20000084    ...     DCD    536871044
    $t
    i.prvIdleTask
    prvIdleTask
        0x00001190:    4e0f        .N      LDR      r6,[pc,#60] ; [0x11d0] = 0x2000016c
        0x00001192:    4d10        .M      LDR      r5,[pc,#64] ; [0x11d4] = 0x20000020
        0x00001194:    4637        7F      MOV      r7,r6
        0x00001196:    3fa0        .?      SUBS     r7,r7,#0xa0
        0x00001198:    e011        ..      B        0x11be ; prvIdleTask + 46
        0x0000119a:    f000fb31    ..1.    BL       vPortEnterCritical ; 0x1800
        0x0000119e:    68f0        .h      LDR      r0,[r6,#0xc]
        0x000011a0:    68c4        .h      LDR      r4,[r0,#0xc]
        0x000011a2:    1d20         .      ADDS     r0,r4,#4
        0x000011a4:    f000fae2    ....    BL       uxListRemove ; 0x176c
        0x000011a8:    68a8        .h      LDR      r0,[r5,#8]
        0x000011aa:    1e40        @.      SUBS     r0,r0,#1
        0x000011ac:    60a8        .`      STR      r0,[r5,#8]
        0x000011ae:    6868        hh      LDR      r0,[r5,#4]
        0x000011b0:    1e40        @.      SUBS     r0,r0,#1
        0x000011b2:    6068        h`      STR      r0,[r5,#4]
        0x000011b4:    f000fb30    ..0.    BL       vPortExitCritical ; 0x1818
        0x000011b8:    4620         F      MOV      r0,r4
        0x000011ba:    f7ffffbe    ....    BL       prvDeleteTCB ; 0x113a
        0x000011be:    6868        hh      LDR      r0,[r5,#4]
        0x000011c0:    2800        .(      CMP      r0,#0
        0x000011c2:    d1ea        ..      BNE      0x119a ; prvIdleTask + 10
        0x000011c4:    6838        8h      LDR      r0,[r7,#0]
        0x000011c6:    2801        .(      CMP      r0,#1
        0x000011c8:    d9f9        ..      BLS      0x11be ; prvIdleTask + 46
        0x000011ca:    f000fb55    ..U.    BL       vPortYield ; 0x1878
        0x000011ce:    e7f6        ..      B        0x11be ; prvIdleTask + 46
    $d
        0x000011d0:    2000016c    l..     DCD    536871276
        0x000011d4:    20000020     ..     DCD    536870944
    $t
    i.prvInitialiseNewTask
    prvInitialiseNewTask
        0x000011d8:    b5ff        ..      PUSH     {r0-r7,lr}
        0x000011da:    b081        ..      SUB      sp,sp,#4
        0x000011dc:    460e        .F      MOV      r6,r1
        0x000011de:    0091        ..      LSLS     r1,r2,#2
        0x000011e0:    9c0c        ..      LDR      r4,[sp,#0x30]
        0x000011e2:    460f        .F      MOV      r7,r1
        0x000011e4:    9d0a        ..      LDR      r5,[sp,#0x28]
        0x000011e6:    22a5        ."      MOVS     r2,#0xa5
        0x000011e8:    6b20         k      LDR      r0,[r4,#0x30]
        0x000011ea:    f7fff813    ....    BL       __aeabi_memset ; 0x214
        0x000011ee:    6b20         k      LDR      r0,[r4,#0x30]
        0x000011f0:    1f3f        ?.      SUBS     r7,r7,#4
        0x000011f2:    19c0        ..      ADDS     r0,r0,r7
        0x000011f4:    08c0        ..      LSRS     r0,r0,#3
        0x000011f6:    00c0        ..      LSLS     r0,r0,#3
        0x000011f8:    9000        ..      STR      r0,[sp,#0]
        0x000011fa:    0740        @.      LSLS     r0,r0,#29
        0x000011fc:    d001        ..      BEQ      0x1202 ; prvInitialiseNewTask + 42
        0x000011fe:    b672        r.      CPSID    i
        0x00001200:    e7fe        ..      B        0x1200 ; prvInitialiseNewTask + 40
        0x00001202:    4627        'F      MOV      r7,r4
        0x00001204:    3740        @7      ADDS     r7,r7,#0x40
        0x00001206:    2000        .       MOVS     r0,#0
        0x00001208:    2e00        ..      CMP      r6,#0
        0x0000120a:    d00c        ..      BEQ      0x1226 ; prvInitialiseNewTask + 78
        0x0000120c:    2100        .!      MOVS     r1,#0
        0x0000120e:    1863        c.      ADDS     r3,r4,r1
        0x00001210:    5c72        r\      LDRB     r2,[r6,r1]
        0x00001212:    3320         3      ADDS     r3,r3,#0x20
        0x00001214:    751a        .u      STRB     r2,[r3,#0x14]
        0x00001216:    5c72        r\      LDRB     r2,[r6,r1]
        0x00001218:    2a00        .*      CMP      r2,#0
        0x0000121a:    d002        ..      BEQ      0x1222 ; prvInitialiseNewTask + 74
        0x0000121c:    1c49        I.      ADDS     r1,r1,#1
        0x0000121e:    2910        .)      CMP      r1,#0x10
        0x00001220:    d3f5        ..      BCC      0x120e ; prvInitialiseNewTask + 54
        0x00001222:    70f8        .p      STRB     r0,[r7,#3]
        0x00001224:    e001        ..      B        0x122a ; prvInitialiseNewTask + 82
        0x00001226:    2134        4!      MOVS     r1,#0x34
        0x00001228:    5508        .U      STRB     r0,[r1,r4]
        0x0000122a:    2d05        .-      CMP      r5,#5
        0x0000122c:    d300        ..      BCC      0x1230 ; prvInitialiseNewTask + 88
        0x0000122e:    2504        .%      MOVS     r5,#4
        0x00001230:    62e5        .b      STR      r5,[r4,#0x2c]
        0x00001232:    64e5        .d      STR      r5,[r4,#0x4c]
        0x00001234:    4606        .F      MOV      r6,r0
        0x00001236:    6520         e      STR      r0,[r4,#0x50]
        0x00001238:    1d20         .      ADDS     r0,r4,#4
        0x0000123a:    f000faba    ....    BL       vListInitialiseItem ; 0x17b2
        0x0000123e:    4620         F      MOV      r0,r4
        0x00001240:    3018        .0      ADDS     r0,r0,#0x18
        0x00001242:    f000fab6    ....    BL       vListInitialiseItem ; 0x17b2
        0x00001246:    6124        $a      STR      r4,[r4,#0x10]
        0x00001248:    2005        .       MOVS     r0,#5
        0x0000124a:    1b40        @.      SUBS     r0,r0,r5
        0x0000124c:    6264        db      STR      r4,[r4,#0x24]
        0x0000124e:    61a0        .a      STR      r0,[r4,#0x18]
        0x00001250:    6566        fe      STR      r6,[r4,#0x54]
        0x00001252:    763e        >v      STRB     r6,[r7,#0x18]
        0x00001254:    9a04        ..      LDR      r2,[sp,#0x10]
        0x00001256:    9901        ..      LDR      r1,[sp,#4]
        0x00001258:    9800        ..      LDR      r0,[sp,#0]
        0x0000125a:    f000fa23    ..#.    BL       pxPortInitialiseStack ; 0x16a4
        0x0000125e:    6020         `      STR      r0,[r4,#0]
        0x00001260:    980b        ..      LDR      r0,[sp,#0x2c]
        0x00001262:    2800        .(      CMP      r0,#0
        0x00001264:    d000        ..      BEQ      0x1268 ; prvInitialiseNewTask + 144
        0x00001266:    6004        .`      STR      r4,[r0,#0]
        0x00001268:    b005        ..      ADD      sp,sp,#0x14
        0x0000126a:    bdf0        ..      POP      {r4-r7,pc}
    i.prvInsertBlockIntoFreeList
    prvInsertBlockIntoFreeList
        0x0000126c:    b530        0.      PUSH     {r4,r5,lr}
        0x0000126e:    4911        .I      LDR      r1,[pc,#68] ; [0x12b4] = 0x20000084
        0x00001270:    e000        ..      B        0x1274 ; prvInsertBlockIntoFreeList + 8
        0x00001272:    4611        .F      MOV      r1,r2
        0x00001274:    680a        .h      LDR      r2,[r1,#0]
        0x00001276:    4282        .B      CMP      r2,r0
        0x00001278:    d3fb        ..      BCC      0x1272 ; prvInsertBlockIntoFreeList + 6
        0x0000127a:    684b        Kh      LDR      r3,[r1,#4]
        0x0000127c:    185c        \.      ADDS     r4,r3,r1
        0x0000127e:    4284        .B      CMP      r4,r0
        0x00001280:    d103        ..      BNE      0x128a ; prvInsertBlockIntoFreeList + 30
        0x00001282:    6840        @h      LDR      r0,[r0,#4]
        0x00001284:    1818        ..      ADDS     r0,r3,r0
        0x00001286:    6048        H`      STR      r0,[r1,#4]
        0x00001288:    4608        .F      MOV      r0,r1
        0x0000128a:    6843        Ch      LDR      r3,[r0,#4]
        0x0000128c:    181c        ..      ADDS     r4,r3,r0
        0x0000128e:    4294        .B      CMP      r4,r2
        0x00001290:    d109        ..      BNE      0x12a6 ; prvInsertBlockIntoFreeList + 58
        0x00001292:    4c08        .L      LDR      r4,[pc,#32] ; [0x12b4] = 0x20000084
        0x00001294:    3c10        .<      SUBS     r4,r4,#0x10
        0x00001296:    6824        $h      LDR      r4,[r4,#0]
        0x00001298:    42a2        .B      CMP      r2,r4
        0x0000129a:    d009        ..      BEQ      0x12b0 ; prvInsertBlockIntoFreeList + 68
        0x0000129c:    6852        Rh      LDR      r2,[r2,#4]
        0x0000129e:    189a        ..      ADDS     r2,r3,r2
        0x000012a0:    6042        B`      STR      r2,[r0,#4]
        0x000012a2:    680a        .h      LDR      r2,[r1,#0]
        0x000012a4:    6812        .h      LDR      r2,[r2,#0]
        0x000012a6:    6002        .`      STR      r2,[r0,#0]
        0x000012a8:    4281        .B      CMP      r1,r0
        0x000012aa:    d000        ..      BEQ      0x12ae ; prvInsertBlockIntoFreeList + 66
        0x000012ac:    6008        .`      STR      r0,[r1,#0]
        0x000012ae:    bd30        0.      POP      {r4,r5,pc}
        0x000012b0:    6004        .`      STR      r4,[r0,#0]
        0x000012b2:    e7f9        ..      B        0x12a8 ; prvInsertBlockIntoFreeList + 60
    $d
        0x000012b4:    20000084    ...     DCD    536871044
    $t
    i.prvInsertTimerInActiveList
    prvInsertTimerInActiveList
        0x000012b8:    b570        p.      PUSH     {r4-r6,lr}
        0x000012ba:    2400        .$      MOVS     r4,#0
        0x000012bc:    6041        A`      STR      r1,[r0,#4]
        0x000012be:    4d0b        .M      LDR      r5,[pc,#44] ; [0x12ec] = 0x2000005c
        0x000012c0:    6100        .a      STR      r0,[r0,#0x10]
        0x000012c2:    4291        .B      CMP      r1,r2
        0x000012c4:    d806        ..      BHI      0x12d4 ; prvInsertTimerInActiveList + 28
        0x000012c6:    1ad1        ..      SUBS     r1,r2,r3
        0x000012c8:    6982        .i      LDR      r2,[r0,#0x18]
        0x000012ca:    4291        .B      CMP      r1,r2
        0x000012cc:    d206        ..      BCS      0x12dc ; prvInsertTimerInActiveList + 36
        0x000012ce:    1d01        ..      ADDS     r1,r0,#4
        0x000012d0:    6928        (i      LDR      r0,[r5,#0x10]
        0x000012d2:    e007        ..      B        0x12e4 ; prvInsertTimerInActiveList + 44
        0x000012d4:    429a        .B      CMP      r2,r3
        0x000012d6:    d203        ..      BCS      0x12e0 ; prvInsertTimerInActiveList + 40
        0x000012d8:    4299        .B      CMP      r1,r3
        0x000012da:    d301        ..      BCC      0x12e0 ; prvInsertTimerInActiveList + 40
        0x000012dc:    2401        .$      MOVS     r4,#1
        0x000012de:    e003        ..      B        0x12e8 ; prvInsertTimerInActiveList + 48
        0x000012e0:    1d01        ..      ADDS     r1,r0,#4
        0x000012e2:    68e8        .h      LDR      r0,[r5,#0xc]
        0x000012e4:    f000fa68    ..h.    BL       vListInsert ; 0x17b8
        0x000012e8:    4620         F      MOV      r0,r4
        0x000012ea:    bd70        p.      POP      {r4-r6,pc}
    $d
        0x000012ec:    2000005c    \..     DCD    536871004
    $t
    i.prvIsQueueEmpty
    prvIsQueueEmpty
        0x000012f0:    b510        ..      PUSH     {r4,lr}
        0x000012f2:    4604        .F      MOV      r4,r0
        0x000012f4:    f000fa84    ....    BL       vPortEnterCritical ; 0x1800
        0x000012f8:    6ba0        .k      LDR      r0,[r4,#0x38]
        0x000012fa:    2800        .(      CMP      r0,#0
        0x000012fc:    d004        ..      BEQ      0x1308 ; prvIsQueueEmpty + 24
        0x000012fe:    2400        .$      MOVS     r4,#0
        0x00001300:    f000fa8a    ....    BL       vPortExitCritical ; 0x1818
        0x00001304:    4620         F      MOV      r0,r4
        0x00001306:    bd10        ..      POP      {r4,pc}
        0x00001308:    2401        .$      MOVS     r4,#1
        0x0000130a:    e7f9        ..      B        0x1300 ; prvIsQueueEmpty + 16
    i.prvProcessReceivedCommands
    prvProcessReceivedCommands
        0x0000130c:    b5f0        ..      PUSH     {r4-r7,lr}
        0x0000130e:    b085        ..      SUB      sp,sp,#0x14
        0x00001310:    2501        .%      MOVS     r5,#1
        0x00001312:    4e34        4N      LDR      r6,[pc,#208] ; [0x13e4] = 0x2000005c
        0x00001314:    e05c        \.      B        0x13d0 ; prvProcessReceivedCommands + 196
        0x00001316:    9801        ..      LDR      r0,[sp,#4]
        0x00001318:    2800        .(      CMP      r0,#0
        0x0000131a:    db59        Y.      BLT      0x13d0 ; prvProcessReceivedCommands + 196
        0x0000131c:    9c03        ..      LDR      r4,[sp,#0xc]
        0x0000131e:    6960        `i      LDR      r0,[r4,#0x14]
        0x00001320:    2800        .(      CMP      r0,#0
        0x00001322:    d002        ..      BEQ      0x132a ; prvProcessReceivedCommands + 30
        0x00001324:    1d20         .      ADDS     r0,r4,#4
        0x00001326:    f000fa21    ..!.    BL       uxListRemove ; 0x176c
        0x0000132a:    a804        ..      ADD      r0,sp,#0x10
        0x0000132c:    f000f8c0    ....    BL       prvSampleTimeNow ; 0x14b0
        0x00001330:    4602        .F      MOV      r2,r0
        0x00001332:    9801        ..      LDR      r0,[sp,#4]
        0x00001334:    0003        ..      MOVS     r3,r0
        0x00001336:    f7fffb6b    ..k.    BL       __ARM_common_switch8 ; 0xa10
    $d
        0x0000133a:    060a        ..      DCW    1546
        0x0000133c:    2e280606    ..(.    DCD    774374918
        0x00001340:    2806063f    ?..(    DCD    671483455
        0x00001344:    4b2e        .K      DCW    19246
    $t
        0x00001346:    4627        'F      MOV      r7,r4
        0x00001348:    3720         7      ADDS     r7,r7,#0x20
        0x0000134a:    7a38        8z      LDRB     r0,[r7,#8]
        0x0000134c:    4328        (C      ORRS     r0,r0,r5
        0x0000134e:    7238        8r      STRB     r0,[r7,#8]
        0x00001350:    9802        ..      LDR      r0,[sp,#8]
        0x00001352:    69a1        .i      LDR      r1,[r4,#0x18]
        0x00001354:    4603        .F      MOV      r3,r0
        0x00001356:    1841        A.      ADDS     r1,r0,r1
        0x00001358:    4620         F      MOV      r0,r4
        0x0000135a:    f7ffffad    ....    BL       prvInsertTimerInActiveList ; 0x12b8
        0x0000135e:    2800        .(      CMP      r0,#0
        0x00001360:    d036        6.      BEQ      0x13d0 ; prvProcessReceivedCommands + 196
        0x00001362:    6a21        !j      LDR      r1,[r4,#0x20]
        0x00001364:    4620         F      MOV      r0,r4
        0x00001366:    4788        .G      BLX      r1
        0x00001368:    7a38        8z      LDRB     r0,[r7,#8]
        0x0000136a:    0740        @.      LSLS     r0,r0,#29
        0x0000136c:    d530        0.      BPL      0x13d0 ; prvProcessReceivedCommands + 196
        0x0000136e:    2000        .       MOVS     r0,#0
        0x00001370:    9000        ..      STR      r0,[sp,#0]
        0x00001372:    9802        ..      LDR      r0,[sp,#8]
        0x00001374:    69a1        .i      LDR      r1,[r4,#0x18]
        0x00001376:    2300        .#      MOVS     r3,#0
        0x00001378:    1842        B.      ADDS     r2,r0,r1
        0x0000137a:    4619        .F      MOV      r1,r3
        0x0000137c:    4620         F      MOV      r0,r4
        0x0000137e:    f000ffdf    ....    BL       xTimerGenericCommand ; 0x2340
        0x00001382:    2800        .(      CMP      r0,#0
        0x00001384:    d124        $.      BNE      0x13d0 ; prvProcessReceivedCommands + 196
        0x00001386:    b672        r.      CPSID    i
        0x00001388:    e7fe        ..      B        0x1388 ; prvProcessReceivedCommands + 124
        0x0000138a:    3420         4      ADDS     r4,r4,#0x20
        0x0000138c:    7a20         z      LDRB     r0,[r4,#8]
        0x0000138e:    0840        @.      LSRS     r0,r0,#1
        0x00001390:    0040        @.      LSLS     r0,r0,#1
        0x00001392:    7220         r      STRB     r0,[r4,#8]
        0x00001394:    e01c        ..      B        0x13d0 ; prvProcessReceivedCommands + 196
        0x00001396:    4620         F      MOV      r0,r4
        0x00001398:    3020         0      ADDS     r0,r0,#0x20
        0x0000139a:    7a01        .z      LDRB     r1,[r0,#8]
        0x0000139c:    4329        )C      ORRS     r1,r1,r5
        0x0000139e:    7201        .r      STRB     r1,[r0,#8]
        0x000013a0:    9802        ..      LDR      r0,[sp,#8]
        0x000013a2:    61a0        .a      STR      r0,[r4,#0x18]
        0x000013a4:    2800        .(      CMP      r0,#0
        0x000013a6:    d005        ..      BEQ      0x13b4 ; prvProcessReceivedCommands + 168
        0x000013a8:    1881        ..      ADDS     r1,r0,r2
        0x000013aa:    4613        .F      MOV      r3,r2
        0x000013ac:    4620         F      MOV      r0,r4
        0x000013ae:    f7ffff83    ....    BL       prvInsertTimerInActiveList ; 0x12b8
        0x000013b2:    e00d        ..      B        0x13d0 ; prvProcessReceivedCommands + 196
        0x000013b4:    b672        r.      CPSID    i
        0x000013b6:    e7fe        ..      B        0x13b6 ; prvProcessReceivedCommands + 170
        0x000013b8:    4621        !F      MOV      r1,r4
        0x000013ba:    3120         1      ADDS     r1,r1,#0x20
        0x000013bc:    7a08        .z      LDRB     r0,[r1,#8]
        0x000013be:    0782        ..      LSLS     r2,r0,#30
        0x000013c0:    d403        ..      BMI      0x13ca ; prvProcessReceivedCommands + 190
        0x000013c2:    4620         F      MOV      r0,r4
        0x000013c4:    f000fa36    ..6.    BL       vPortFree ; 0x1834
        0x000013c8:    e002        ..      B        0x13d0 ; prvProcessReceivedCommands + 196
        0x000013ca:    0840        @.      LSRS     r0,r0,#1
        0x000013cc:    0040        @.      LSLS     r0,r0,#1
        0x000013ce:    7208        .r      STRB     r0,[r1,#8]
        0x000013d0:    2200        ."      MOVS     r2,#0
        0x000013d2:    a901        ..      ADD      r1,sp,#4
        0x000013d4:    6830        0h      LDR      r0,[r6,#0]
        0x000013d6:    f000fd87    ....    BL       xQueueReceive ; 0x1ee8
        0x000013da:    2800        .(      CMP      r0,#0
        0x000013dc:    d19b        ..      BNE      0x1316 ; prvProcessReceivedCommands + 10
        0x000013de:    b005        ..      ADD      sp,sp,#0x14
        0x000013e0:    bdf0        ..      POP      {r4-r7,pc}
    $d
        0x000013e2:    0000        ..      DCW    0
        0x000013e4:    2000005c    \..     DCD    536871004
    $t
    i.prvProcessTimerOrBlockTask
    prvProcessTimerOrBlockTask
        0x000013e8:    b5fe        ..      PUSH     {r1-r7,lr}
        0x000013ea:    460f        .F      MOV      r7,r1
        0x000013ec:    4605        .F      MOV      r5,r0
        0x000013ee:    f000fbd5    ....    BL       vTaskSuspendAll ; 0x1b9c
        0x000013f2:    a801        ..      ADD      r0,sp,#4
        0x000013f4:    f000f85c    ..\.    BL       prvSampleTimeNow ; 0x14b0
        0x000013f8:    4604        .F      MOV      r4,r0
        0x000013fa:    9801        ..      LDR      r0,[sp,#4]
        0x000013fc:    2800        .(      CMP      r0,#0
        0x000013fe:    d002        ..      BEQ      0x1406 ; prvProcessTimerOrBlockTask + 30
        0x00001400:    f000ff28    ..(.    BL       xTaskResumeAll ; 0x2254
        0x00001404:    bdfe        ..      POP      {r1-r7,pc}
        0x00001406:    4e21        !N      LDR      r6,[pc,#132] ; [0x148c] = 0x2000005c
        0x00001408:    2f00        ./      CMP      r7,#0
        0x0000140a:    d010        ..      BEQ      0x142e ; prvProcessTimerOrBlockTask + 70
        0x0000140c:    6930        0i      LDR      r0,[r6,#0x10]
        0x0000140e:    6800        .h      LDR      r0,[r0,#0]
        0x00001410:    2800        .(      CMP      r0,#0
        0x00001412:    d038        8.      BEQ      0x1486 ; prvProcessTimerOrBlockTask + 158
        0x00001414:    2700        .'      MOVS     r7,#0
        0x00001416:    1b29        ).      SUBS     r1,r5,r4
        0x00001418:    463a        :F      MOV      r2,r7
        0x0000141a:    6830        0h      LDR      r0,[r6,#0]
        0x0000141c:    f000fa4a    ..J.    BL       vQueueWaitForMessageRestricted ; 0x18b4
        0x00001420:    f000ff18    ....    BL       xTaskResumeAll ; 0x2254
        0x00001424:    2800        .(      CMP      r0,#0
        0x00001426:    d1ed        ..      BNE      0x1404 ; prvProcessTimerOrBlockTask + 28
        0x00001428:    f000fa26    ..&.    BL       vPortYield ; 0x1878
        0x0000142c:    bdfe        ..      POP      {r1-r7,pc}
        0x0000142e:    42a5        .B      CMP      r5,r4
        0x00001430:    d8f1        ..      BHI      0x1416 ; prvProcessTimerOrBlockTask + 46
        0x00001432:    f000ff0f    ....    BL       xTaskResumeAll ; 0x2254
        0x00001436:    68f0        .h      LDR      r0,[r6,#0xc]
        0x00001438:    4627        'F      MOV      r7,r4
        0x0000143a:    68c0        .h      LDR      r0,[r0,#0xc]
        0x0000143c:    68c4        .h      LDR      r4,[r0,#0xc]
        0x0000143e:    1d20         .      ADDS     r0,r4,#4
        0x00001440:    f000f994    ....    BL       uxListRemove ; 0x176c
        0x00001444:    4621        !F      MOV      r1,r4
        0x00001446:    3120         1      ADDS     r1,r1,#0x20
        0x00001448:    7a08        .z      LDRB     r0,[r1,#8]
        0x0000144a:    0742        B.      LSLS     r2,r0,#29
        0x0000144c:    d514        ..      BPL      0x1478 ; prvProcessTimerOrBlockTask + 144
        0x0000144e:    69a0        .i      LDR      r0,[r4,#0x18]
        0x00001450:    462b        +F      MOV      r3,r5
        0x00001452:    1941        A.      ADDS     r1,r0,r5
        0x00001454:    463a        :F      MOV      r2,r7
        0x00001456:    4620         F      MOV      r0,r4
        0x00001458:    f7ffff2e    ....    BL       prvInsertTimerInActiveList ; 0x12b8
        0x0000145c:    2800        .(      CMP      r0,#0
        0x0000145e:    d00e        ..      BEQ      0x147e ; prvProcessTimerOrBlockTask + 150
        0x00001460:    2000        .       MOVS     r0,#0
        0x00001462:    4603        .F      MOV      r3,r0
        0x00001464:    4601        .F      MOV      r1,r0
        0x00001466:    9000        ..      STR      r0,[sp,#0]
        0x00001468:    462a        *F      MOV      r2,r5
        0x0000146a:    4620         F      MOV      r0,r4
        0x0000146c:    f000ff68    ..h.    BL       xTimerGenericCommand ; 0x2340
        0x00001470:    2800        .(      CMP      r0,#0
        0x00001472:    d104        ..      BNE      0x147e ; prvProcessTimerOrBlockTask + 150
        0x00001474:    b672        r.      CPSID    i
        0x00001476:    e7fe        ..      B        0x1476 ; prvProcessTimerOrBlockTask + 142
        0x00001478:    0840        @.      LSRS     r0,r0,#1
        0x0000147a:    0040        @.      LSLS     r0,r0,#1
        0x0000147c:    7208        .r      STRB     r0,[r1,#8]
        0x0000147e:    6a21        !j      LDR      r1,[r4,#0x20]
        0x00001480:    4620         F      MOV      r0,r4
        0x00001482:    4788        .G      BLX      r1
        0x00001484:    bdfe        ..      POP      {r1-r7,pc}
        0x00001486:    2701        .'      MOVS     r7,#1
        0x00001488:    e7c5        ..      B        0x1416 ; prvProcessTimerOrBlockTask + 46
    $d
        0x0000148a:    0000        ..      DCW    0
        0x0000148c:    2000005c    \..     DCD    536871004
    $t
    i.prvResetNextTaskUnblockTime
    prvResetNextTaskUnblockTime
        0x00001490:    4806        .H      LDR      r0,[pc,#24] ; [0x14ac] = 0x20000020
        0x00001492:    6b41        Ak      LDR      r1,[r0,#0x34]
        0x00001494:    6809        .h      LDR      r1,[r1,#0]
        0x00001496:    2900        .)      CMP      r1,#0
        0x00001498:    d005        ..      BEQ      0x14a6 ; prvResetNextTaskUnblockTime + 22
        0x0000149a:    6b41        Ak      LDR      r1,[r0,#0x34]
        0x0000149c:    68c9        .h      LDR      r1,[r1,#0xc]
        0x0000149e:    68c9        .h      LDR      r1,[r1,#0xc]
        0x000014a0:    6849        Ih      LDR      r1,[r1,#4]
        0x000014a2:    6281        .b      STR      r1,[r0,#0x28]
        0x000014a4:    4770        pG      BX       lr
        0x000014a6:    2100        .!      MOVS     r1,#0
        0x000014a8:    43c9        .C      MVNS     r1,r1
        0x000014aa:    e7fa        ..      B        0x14a2 ; prvResetNextTaskUnblockTime + 18
    $d
        0x000014ac:    20000020     ..     DCD    536870944
    $t
    i.prvSampleTimeNow
    prvSampleTimeNow
        0x000014b0:    b570        p.      PUSH     {r4-r6,lr}
        0x000014b2:    4605        .F      MOV      r5,r0
        0x000014b4:    f000fe00    ....    BL       xTaskGetTickCount ; 0x20b8
        0x000014b8:    4e06        .N      LDR      r6,[pc,#24] ; [0x14d4] = 0x2000005c
        0x000014ba:    4604        .F      MOV      r4,r0
        0x000014bc:    68b0        .h      LDR      r0,[r6,#8]
        0x000014be:    4284        .B      CMP      r4,r0
        0x000014c0:    d203        ..      BCS      0x14ca ; prvSampleTimeNow + 26
        0x000014c2:    f000f809    ....    BL       prvSwitchTimerLists ; 0x14d8
        0x000014c6:    2001        .       MOVS     r0,#1
        0x000014c8:    e000        ..      B        0x14cc ; prvSampleTimeNow + 28
        0x000014ca:    2000        .       MOVS     r0,#0
        0x000014cc:    6028        (`      STR      r0,[r5,#0]
        0x000014ce:    4620         F      MOV      r0,r4
        0x000014d0:    60b4        .`      STR      r4,[r6,#8]
        0x000014d2:    bd70        p.      POP      {r4-r6,pc}
    $d
        0x000014d4:    2000005c    \..     DCD    536871004
    $t
    i.prvSwitchTimerLists
    prvSwitchTimerLists
        0x000014d8:    b5f8        ..      PUSH     {r3-r7,lr}
        0x000014da:    4e17        .N      LDR      r6,[pc,#92] ; [0x1538] = 0x2000005c
        0x000014dc:    e021        !.      B        0x1522 ; prvSwitchTimerLists + 74
        0x000014de:    68c0        .h      LDR      r0,[r0,#0xc]
        0x000014e0:    68c4        .h      LDR      r4,[r0,#0xc]
        0x000014e2:    6805        .h      LDR      r5,[r0,#0]
        0x000014e4:    1d20         .      ADDS     r0,r4,#4
        0x000014e6:    f000f941    ..A.    BL       uxListRemove ; 0x176c
        0x000014ea:    6a21        !j      LDR      r1,[r4,#0x20]
        0x000014ec:    4620         F      MOV      r0,r4
        0x000014ee:    4788        .G      BLX      r1
        0x000014f0:    2028        (       MOVS     r0,#0x28
        0x000014f2:    5d00        .]      LDRB     r0,[r0,r4]
        0x000014f4:    0740        @.      LSLS     r0,r0,#29
        0x000014f6:    d514        ..      BPL      0x1522 ; prvSwitchTimerLists + 74
        0x000014f8:    69a0        .i      LDR      r0,[r4,#0x18]
        0x000014fa:    1940        @.      ADDS     r0,r0,r5
        0x000014fc:    42a8        .B      CMP      r0,r5
        0x000014fe:    d906        ..      BLS      0x150e ; prvSwitchTimerLists + 54
        0x00001500:    6124        $a      STR      r4,[r4,#0x10]
        0x00001502:    6060        ``      STR      r0,[r4,#4]
        0x00001504:    1d21        !.      ADDS     r1,r4,#4
        0x00001506:    68f0        .h      LDR      r0,[r6,#0xc]
        0x00001508:    f000f956    ..V.    BL       vListInsert ; 0x17b8
        0x0000150c:    e009        ..      B        0x1522 ; prvSwitchTimerLists + 74
        0x0000150e:    2000        .       MOVS     r0,#0
        0x00001510:    4603        .F      MOV      r3,r0
        0x00001512:    4601        .F      MOV      r1,r0
        0x00001514:    9000        ..      STR      r0,[sp,#0]
        0x00001516:    462a        *F      MOV      r2,r5
        0x00001518:    4620         F      MOV      r0,r4
        0x0000151a:    f000ff11    ....    BL       xTimerGenericCommand ; 0x2340
        0x0000151e:    2800        .(      CMP      r0,#0
        0x00001520:    d007        ..      BEQ      0x1532 ; prvSwitchTimerLists + 90
        0x00001522:    68f0        .h      LDR      r0,[r6,#0xc]
        0x00001524:    6801        .h      LDR      r1,[r0,#0]
        0x00001526:    2900        .)      CMP      r1,#0
        0x00001528:    d1d9        ..      BNE      0x14de ; prvSwitchTimerLists + 6
        0x0000152a:    6931        1i      LDR      r1,[r6,#0x10]
        0x0000152c:    60f1        .`      STR      r1,[r6,#0xc]
        0x0000152e:    6130        0a      STR      r0,[r6,#0x10]
        0x00001530:    bdf8        ..      POP      {r3-r7,pc}
        0x00001532:    b672        r.      CPSID    i
        0x00001534:    e7fe        ..      B        0x1534 ; prvSwitchTimerLists + 92
    $d
        0x00001536:    0000        ..      DCW    0
        0x00001538:    2000005c    \..     DCD    536871004
    $t
    i.prvTaskExitError
    prvTaskExitError
        0x0000153c:    4803        .H      LDR      r0,[pc,#12] ; [0x154c] = 0x20000070
        0x0000153e:    6800        .h      LDR      r0,[r0,#0]
        0x00001540:    1c40        @.      ADDS     r0,r0,#1
        0x00001542:    b672        r.      CPSID    i
        0x00001544:    d000        ..      BEQ      0x1548 ; prvTaskExitError + 12
        0x00001546:    e7fe        ..      B        0x1546 ; prvTaskExitError + 10
        0x00001548:    e7fe        ..      B        0x1548 ; prvTaskExitError + 12
    $d
        0x0000154a:    0000        ..      DCW    0
        0x0000154c:    20000070    p..     DCD    536871024
    $t
    i.prvTimerTask
    prvTimerTask
        0x00001550:    4c09        .L      LDR      r4,[pc,#36] ; [0x1578] = 0x2000005c
        0x00001552:    68e0        .h      LDR      r0,[r4,#0xc]
        0x00001554:    6801        .h      LDR      r1,[r0,#0]
        0x00001556:    2900        .)      CMP      r1,#0
        0x00001558:    d008        ..      BEQ      0x156c ; prvTimerTask + 28
        0x0000155a:    2100        .!      MOVS     r1,#0
        0x0000155c:    2900        .)      CMP      r1,#0
        0x0000155e:    d007        ..      BEQ      0x1570 ; prvTimerTask + 32
        0x00001560:    2000        .       MOVS     r0,#0
        0x00001562:    f7ffff41    ..A.    BL       prvProcessTimerOrBlockTask ; 0x13e8
        0x00001566:    f7fffed1    ....    BL       prvProcessReceivedCommands ; 0x130c
        0x0000156a:    e7f2        ..      B        0x1552 ; prvTimerTask + 2
        0x0000156c:    2101        .!      MOVS     r1,#1
        0x0000156e:    e7f5        ..      B        0x155c ; prvTimerTask + 12
        0x00001570:    68c0        .h      LDR      r0,[r0,#0xc]
        0x00001572:    6800        .h      LDR      r0,[r0,#0]
        0x00001574:    e7f5        ..      B        0x1562 ; prvTimerTask + 18
    $d
        0x00001576:    0000        ..      DCW    0
        0x00001578:    2000005c    \..     DCD    536871004
    $t
    i.prvUnlockQueue
    prvUnlockQueue
        0x0000157c:    b5f8        ..      PUSH     {r3-r7,lr}
        0x0000157e:    4604        .F      MOV      r4,r0
        0x00001580:    f000f93e    ..>.    BL       vPortEnterCritical ; 0x1800
        0x00001584:    4626        &F      MOV      r6,r4
        0x00001586:    3640        @6      ADDS     r6,r6,#0x40
        0x00001588:    2505        .%      MOVS     r5,#5
        0x0000158a:    5775        uW      LDRSB    r5,[r6,r5]
        0x0000158c:    4627        'F      MOV      r7,r4
        0x0000158e:    3724        $7      ADDS     r7,r7,#0x24
        0x00001590:    e00b        ..      B        0x15aa ; prvUnlockQueue + 46
        0x00001592:    6a60        `j      LDR      r0,[r4,#0x24]
        0x00001594:    2800        .(      CMP      r0,#0
        0x00001596:    d00a        ..      BEQ      0x15ae ; prvUnlockQueue + 50
        0x00001598:    4638        8F      MOV      r0,r7
        0x0000159a:    f000fe29    ..).    BL       xTaskRemoveFromEventList ; 0x21f0
        0x0000159e:    2800        .(      CMP      r0,#0
        0x000015a0:    d001        ..      BEQ      0x15a6 ; prvUnlockQueue + 42
        0x000015a2:    f000faa1    ....    BL       vTaskMissedYield ; 0x1ae8
        0x000015a6:    1e6d        m.      SUBS     r5,r5,#1
        0x000015a8:    b26d        m.      SXTB     r5,r5
        0x000015aa:    2d00        .-      CMP      r5,#0
        0x000015ac:    dcf1        ..      BGT      0x1592 ; prvUnlockQueue + 22
        0x000015ae:    2700        .'      MOVS     r7,#0
        0x000015b0:    43ff        .C      MVNS     r7,r7
        0x000015b2:    7177        wq      STRB     r7,[r6,#5]
        0x000015b4:    f000f930    ..0.    BL       vPortExitCritical ; 0x1818
        0x000015b8:    f000f922    ..".    BL       vPortEnterCritical ; 0x1800
        0x000015bc:    2504        .%      MOVS     r5,#4
        0x000015be:    5775        uW      LDRSB    r5,[r6,r5]
        0x000015c0:    4620         F      MOV      r0,r4
        0x000015c2:    3010        .0      ADDS     r0,r0,#0x10
        0x000015c4:    9000        ..      STR      r0,[sp,#0]
        0x000015c6:    e00b        ..      B        0x15e0 ; prvUnlockQueue + 100
        0x000015c8:    6920         i      LDR      r0,[r4,#0x10]
        0x000015ca:    2800        .(      CMP      r0,#0
        0x000015cc:    d00a        ..      BEQ      0x15e4 ; prvUnlockQueue + 104
        0x000015ce:    9800        ..      LDR      r0,[sp,#0]
        0x000015d0:    f000fe0e    ....    BL       xTaskRemoveFromEventList ; 0x21f0
        0x000015d4:    2800        .(      CMP      r0,#0
        0x000015d6:    d001        ..      BEQ      0x15dc ; prvUnlockQueue + 96
        0x000015d8:    f000fa86    ....    BL       vTaskMissedYield ; 0x1ae8
        0x000015dc:    1e6d        m.      SUBS     r5,r5,#1
        0x000015de:    b26d        m.      SXTB     r5,r5
        0x000015e0:    2d00        .-      CMP      r5,#0
        0x000015e2:    dcf1        ..      BGT      0x15c8 ; prvUnlockQueue + 76
        0x000015e4:    7137        7q      STRB     r7,[r6,#4]
        0x000015e6:    f000f917    ....    BL       vPortExitCritical ; 0x1818
        0x000015ea:    bdf8        ..      POP      {r3-r7,pc}
    i.pvPortMalloc
    pvPortMalloc
        0x000015ec:    b5f8        ..      PUSH     {r3-r7,lr}
        0x000015ee:    4605        .F      MOV      r5,r0
        0x000015f0:    2600        .&      MOVS     r6,#0
        0x000015f2:    f000fad3    ....    BL       vTaskSuspendAll ; 0x1b9c
        0x000015f6:    4f2a        *O      LDR      r7,[pc,#168] ; [0x16a0] = 0x20000074
        0x000015f8:    6838        8h      LDR      r0,[r7,#0]
        0x000015fa:    2800        .(      CMP      r0,#0
        0x000015fc:    d101        ..      BNE      0x1602 ; pvPortMalloc + 22
        0x000015fe:    f7fffda5    ....    BL       prvHeapInit ; 0x114c
        0x00001602:    68f8        .h      LDR      r0,[r7,#0xc]
        0x00001604:    4205        .B      TST      r5,r0
        0x00001606:    d13f        ?.      BNE      0x1688 ; pvPortMalloc + 156
        0x00001608:    2d00        .-      CMP      r5,#0
        0x0000160a:    d03d        =.      BEQ      0x1688 ; pvPortMalloc + 156
        0x0000160c:    3508        .5      ADDS     r5,r5,#8
        0x0000160e:    0768        h.      LSLS     r0,r5,#29
        0x00001610:    d008        ..      BEQ      0x1624 ; pvPortMalloc + 56
        0x00001612:    0768        h.      LSLS     r0,r5,#29
        0x00001614:    0f40        @.      LSRS     r0,r0,#29
        0x00001616:    2108        .!      MOVS     r1,#8
        0x00001618:    1a08        ..      SUBS     r0,r1,r0
        0x0000161a:    1945        E.      ADDS     r5,r0,r5
        0x0000161c:    0768        h.      LSLS     r0,r5,#29
        0x0000161e:    d001        ..      BEQ      0x1624 ; pvPortMalloc + 56
        0x00001620:    b672        r.      CPSID    i
        0x00001622:    e7fe        ..      B        0x1622 ; pvPortMalloc + 54
        0x00001624:    2d00        .-      CMP      r5,#0
        0x00001626:    d02f        /.      BEQ      0x1688 ; pvPortMalloc + 156
        0x00001628:    6878        xh      LDR      r0,[r7,#4]
        0x0000162a:    4285        .B      CMP      r5,r0
        0x0000162c:    d82c        ,.      BHI      0x1688 ; pvPortMalloc + 156
        0x0000162e:    491c        .I      LDR      r1,[pc,#112] ; [0x16a0] = 0x20000074
        0x00001630:    3110        .1      ADDS     r1,r1,#0x10
        0x00001632:    4608        .F      MOV      r0,r1
        0x00001634:    6804        .h      LDR      r4,[r0,#0]
        0x00001636:    e001        ..      B        0x163c ; pvPortMalloc + 80
        0x00001638:    4621        !F      MOV      r1,r4
        0x0000163a:    4604        .F      MOV      r4,r0
        0x0000163c:    6860        `h      LDR      r0,[r4,#4]
        0x0000163e:    42a8        .B      CMP      r0,r5
        0x00001640:    d202        ..      BCS      0x1648 ; pvPortMalloc + 92
        0x00001642:    6820         h      LDR      r0,[r4,#0]
        0x00001644:    2800        .(      CMP      r0,#0
        0x00001646:    d1f7        ..      BNE      0x1638 ; pvPortMalloc + 76
        0x00001648:    6838        8h      LDR      r0,[r7,#0]
        0x0000164a:    4284        .B      CMP      r4,r0
        0x0000164c:    d01c        ..      BEQ      0x1688 ; pvPortMalloc + 156
        0x0000164e:    680e        .h      LDR      r6,[r1,#0]
        0x00001650:    6820         h      LDR      r0,[r4,#0]
        0x00001652:    6008        .`      STR      r0,[r1,#0]
        0x00001654:    6860        `h      LDR      r0,[r4,#4]
        0x00001656:    3608        .6      ADDS     r6,r6,#8
        0x00001658:    1b41        A.      SUBS     r1,r0,r5
        0x0000165a:    2910        .)      CMP      r1,#0x10
        0x0000165c:    d908        ..      BLS      0x1670 ; pvPortMalloc + 132
        0x0000165e:    1960        `.      ADDS     r0,r4,r5
        0x00001660:    0742        B.      LSLS     r2,r0,#29
        0x00001662:    d001        ..      BEQ      0x1668 ; pvPortMalloc + 124
        0x00001664:    b672        r.      CPSID    i
        0x00001666:    e7fe        ..      B        0x1666 ; pvPortMalloc + 122
        0x00001668:    6041        A`      STR      r1,[r0,#4]
        0x0000166a:    6065        e`      STR      r5,[r4,#4]
        0x0000166c:    f7fffdfe    ....    BL       prvInsertBlockIntoFreeList ; 0x126c
        0x00001670:    6861        ah      LDR      r1,[r4,#4]
        0x00001672:    6878        xh      LDR      r0,[r7,#4]
        0x00001674:    1a40        @.      SUBS     r0,r0,r1
        0x00001676:    6078        x`      STR      r0,[r7,#4]
        0x00001678:    68ba        .h      LDR      r2,[r7,#8]
        0x0000167a:    4290        .B      CMP      r0,r2
        0x0000167c:    d200        ..      BCS      0x1680 ; pvPortMalloc + 148
        0x0000167e:    60b8        .`      STR      r0,[r7,#8]
        0x00001680:    68f8        .h      LDR      r0,[r7,#0xc]
        0x00001682:    4301        .C      ORRS     r1,r1,r0
        0x00001684:    2000        .       MOVS     r0,#0
        0x00001686:    c403        ..      STM      r4!,{r0,r1}
        0x00001688:    f000fde4    ....    BL       xTaskResumeAll ; 0x2254
        0x0000168c:    2e00        ..      CMP      r6,#0
        0x0000168e:    d101        ..      BNE      0x1694 ; pvPortMalloc + 168
        0x00001690:    f000f87f    ....    BL       vApplicationMallocFailedHook ; 0x1792
        0x00001694:    0770        p.      LSLS     r0,r6,#29
        0x00001696:    d001        ..      BEQ      0x169c ; pvPortMalloc + 176
        0x00001698:    b672        r.      CPSID    i
        0x0000169a:    e7fe        ..      B        0x169a ; pvPortMalloc + 174
        0x0000169c:    4630        0F      MOV      r0,r6
        0x0000169e:    bdf8        ..      POP      {r3-r7,pc}
    $d
        0x000016a0:    20000074    t..     DCD    536871028
    $t
    i.pxPortInitialiseStack
    pxPortInitialiseStack
        0x000016a4:    b510        ..      PUSH     {r4,lr}
        0x000016a6:    2401        .$      MOVS     r4,#1
        0x000016a8:    1f03        ..      SUBS     r3,r0,#4
        0x000016aa:    0624        $.      LSLS     r4,r4,#24
        0x000016ac:    601c        .`      STR      r4,[r3,#0]
        0x000016ae:    1f1b        ..      SUBS     r3,r3,#4
        0x000016b0:    6019        .`      STR      r1,[r3,#0]
        0x000016b2:    1f19        ..      SUBS     r1,r3,#4
        0x000016b4:    4b02        .K      LDR      r3,[pc,#8] ; [0x16c0] = 0x153d
        0x000016b6:    600b        .`      STR      r3,[r1,#0]
        0x000016b8:    3914        .9      SUBS     r1,r1,#0x14
        0x000016ba:    3840        @8      SUBS     r0,r0,#0x40
        0x000016bc:    600a        .`      STR      r2,[r1,#0]
        0x000016be:    bd10        ..      POP      {r4,pc}
    $d
        0x000016c0:    0000153d    =...    DCD    5437
    $t
    i.stackDump
    stackDump
        0x000016c4:    b510        ..      PUSH     {r4,lr}
        0x000016c6:    4604        .F      MOV      r4,r0
        0x000016c8:    6801        .h      LDR      r1,[r0,#0]
        0x000016ca:    a010        ..      ADR      r0,{pc}+0x42 ; 0x170c
        0x000016cc:    f7fff990    ....    BL       __0printf$8 ; 0x9f0
        0x000016d0:    a011        ..      ADR      r0,{pc}+0x48 ; 0x1718
        0x000016d2:    6861        ah      LDR      r1,[r4,#4]
        0x000016d4:    f7fff98c    ....    BL       __0printf$8 ; 0x9f0
        0x000016d8:    a012        ..      ADR      r0,{pc}+0x4c ; 0x1724
        0x000016da:    68a1        .h      LDR      r1,[r4,#8]
        0x000016dc:    f7fff988    ....    BL       __0printf$8 ; 0x9f0
        0x000016e0:    a013        ..      ADR      r0,{pc}+0x50 ; 0x1730
        0x000016e2:    68e1        .h      LDR      r1,[r4,#0xc]
        0x000016e4:    f7fff984    ....    BL       __0printf$8 ; 0x9f0
        0x000016e8:    a014        ..      ADR      r0,{pc}+0x54 ; 0x173c
        0x000016ea:    6921        !i      LDR      r1,[r4,#0x10]
        0x000016ec:    f7fff980    ....    BL       __0printf$8 ; 0x9f0
        0x000016f0:    a015        ..      ADR      r0,{pc}+0x58 ; 0x1748
        0x000016f2:    6961        ai      LDR      r1,[r4,#0x14]
        0x000016f4:    f7fff97c    ..|.    BL       __0printf$8 ; 0x9f0
        0x000016f8:    a016        ..      ADR      r0,{pc}+0x5c ; 0x1754
        0x000016fa:    69a1        .i      LDR      r1,[r4,#0x18]
        0x000016fc:    f7fff978    ..x.    BL       __0printf$8 ; 0x9f0
        0x00001700:    a017        ..      ADR      r0,{pc}+0x60 ; 0x1760
        0x00001702:    69e1        .i      LDR      r1,[r4,#0x1c]
        0x00001704:    f7fff974    ..t.    BL       __0printf$8 ; 0x9f0
        0x00001708:    bd10        ..      POP      {r4,pc}
    $d
        0x0000170a:    0000        ..      DCW    0
        0x0000170c:    20203072    r0      DCD    538980466
        0x00001710:    7830203d    = 0x    DCD    2016419901
        0x00001714:    000a7825    %x..    DCD    686117
        0x00001718:    20203172    r1      DCD    538980722
        0x0000171c:    7830203d    = 0x    DCD    2016419901
        0x00001720:    000a7825    %x..    DCD    686117
        0x00001724:    20203272    r2      DCD    538980978
        0x00001728:    7830203d    = 0x    DCD    2016419901
        0x0000172c:    000a7825    %x..    DCD    686117
        0x00001730:    20203372    r3      DCD    538981234
        0x00001734:    7830203d    = 0x    DCD    2016419901
        0x00001738:    000a7825    %x..    DCD    686117
        0x0000173c:    20323172    r12     DCD    540160370
        0x00001740:    7830203d    = 0x    DCD    2016419901
        0x00001744:    000a7825    %x..    DCD    686117
        0x00001748:    2020726c    lr      DCD    538997356
        0x0000174c:    7830203d    = 0x    DCD    2016419901
        0x00001750:    000a7825    %x..    DCD    686117
        0x00001754:    20206370    pc      DCD    538993520
        0x00001758:    7830203d    = 0x    DCD    2016419901
        0x0000175c:    000a7825    %x..    DCD    686117
        0x00001760:    20727370    psr     DCD    544371568
        0x00001764:    7830203d    = 0x    DCD    2016419901
        0x00001768:    000a7825    %x..    DCD    686117
    $t
    i.uxListRemove
    uxListRemove
        0x0000176c:    6843        Ch      LDR      r3,[r0,#4]
        0x0000176e:    6882        .h      LDR      r2,[r0,#8]
        0x00001770:    6901        .i      LDR      r1,[r0,#0x10]
        0x00001772:    609a        .`      STR      r2,[r3,#8]
        0x00001774:    6883        .h      LDR      r3,[r0,#8]
        0x00001776:    6842        Bh      LDR      r2,[r0,#4]
        0x00001778:    605a        Z`      STR      r2,[r3,#4]
        0x0000177a:    684a        Jh      LDR      r2,[r1,#4]
        0x0000177c:    4282        .B      CMP      r2,r0
        0x0000177e:    d101        ..      BNE      0x1784 ; uxListRemove + 24
        0x00001780:    6882        .h      LDR      r2,[r0,#8]
        0x00001782:    604a        J`      STR      r2,[r1,#4]
        0x00001784:    2200        ."      MOVS     r2,#0
        0x00001786:    6102        .a      STR      r2,[r0,#0x10]
        0x00001788:    6808        .h      LDR      r0,[r1,#0]
        0x0000178a:    1e40        @.      SUBS     r0,r0,#1
        0x0000178c:    6008        .`      STR      r0,[r1,#0]
        0x0000178e:    6808        .h      LDR      r0,[r1,#0]
        0x00001790:    4770        pG      BX       lr
    i.vApplicationMallocFailedHook
    vApplicationMallocFailedHook
        0x00001792:    b672        r.      CPSID    i
        0x00001794:    e7fe        ..      B        0x1794 ; vApplicationMallocFailedHook + 2
    i.vApplicationStackOverflowHook
    vApplicationStackOverflowHook
        0x00001796:    b672        r.      CPSID    i
        0x00001798:    e7fe        ..      B        0x1798 ; vApplicationStackOverflowHook + 2
    i.vApplicationTickHook
    vApplicationTickHook
        0x0000179a:    4770        pG      BX       lr
    i.vListInitialise
    vListInitialise
        0x0000179c:    4601        .F      MOV      r1,r0
        0x0000179e:    3108        .1      ADDS     r1,r1,#8
        0x000017a0:    2200        ."      MOVS     r2,#0
        0x000017a2:    6041        A`      STR      r1,[r0,#4]
        0x000017a4:    43d2        .C      MVNS     r2,r2
        0x000017a6:    60c1        .`      STR      r1,[r0,#0xc]
        0x000017a8:    6082        .`      STR      r2,[r0,#8]
        0x000017aa:    6101        .a      STR      r1,[r0,#0x10]
        0x000017ac:    2100        .!      MOVS     r1,#0
        0x000017ae:    6001        .`      STR      r1,[r0,#0]
        0x000017b0:    4770        pG      BX       lr
    i.vListInitialiseItem
    vListInitialiseItem
        0x000017b2:    2100        .!      MOVS     r1,#0
        0x000017b4:    6101        .a      STR      r1,[r0,#0x10]
        0x000017b6:    4770        pG      BX       lr
    i.vListInsert
    vListInsert
        0x000017b8:    b530        0.      PUSH     {r4,r5,lr}
        0x000017ba:    680c        .h      LDR      r4,[r1,#0]
        0x000017bc:    1c62        b.      ADDS     r2,r4,#1
        0x000017be:    d002        ..      BEQ      0x17c6 ; vListInsert + 14
        0x000017c0:    4602        .F      MOV      r2,r0
        0x000017c2:    3208        .2      ADDS     r2,r2,#8
        0x000017c4:    e002        ..      B        0x17cc ; vListInsert + 20
        0x000017c6:    6902        .i      LDR      r2,[r0,#0x10]
        0x000017c8:    e004        ..      B        0x17d4 ; vListInsert + 28
        0x000017ca:    461a        .F      MOV      r2,r3
        0x000017cc:    6853        Sh      LDR      r3,[r2,#4]
        0x000017ce:    681d        .h      LDR      r5,[r3,#0]
        0x000017d0:    42a5        .B      CMP      r5,r4
        0x000017d2:    d9fa        ..      BLS      0x17ca ; vListInsert + 18
        0x000017d4:    6853        Sh      LDR      r3,[r2,#4]
        0x000017d6:    604b        K`      STR      r3,[r1,#4]
        0x000017d8:    6099        .`      STR      r1,[r3,#8]
        0x000017da:    608a        .`      STR      r2,[r1,#8]
        0x000017dc:    6051        Q`      STR      r1,[r2,#4]
        0x000017de:    6108        .a      STR      r0,[r1,#0x10]
        0x000017e0:    6801        .h      LDR      r1,[r0,#0]
        0x000017e2:    1c49        I.      ADDS     r1,r1,#1
        0x000017e4:    6001        .`      STR      r1,[r0,#0]
        0x000017e6:    bd30        0.      POP      {r4,r5,pc}
    i.vListInsertEnd
    vListInsertEnd
        0x000017e8:    6842        Bh      LDR      r2,[r0,#4]
        0x000017ea:    604a        J`      STR      r2,[r1,#4]
        0x000017ec:    6893        .h      LDR      r3,[r2,#8]
        0x000017ee:    608b        .`      STR      r3,[r1,#8]
        0x000017f0:    6893        .h      LDR      r3,[r2,#8]
        0x000017f2:    6059        Y`      STR      r1,[r3,#4]
        0x000017f4:    6091        .`      STR      r1,[r2,#8]
        0x000017f6:    6108        .a      STR      r0,[r1,#0x10]
        0x000017f8:    6801        .h      LDR      r1,[r0,#0]
        0x000017fa:    1c49        I.      ADDS     r1,r1,#1
        0x000017fc:    6001        .`      STR      r1,[r0,#0]
        0x000017fe:    4770        pG      BX       lr
    i.vPortEnterCritical
    vPortEnterCritical
        0x00001800:    b672        r.      CPSID    i
        0x00001802:    4804        .H      LDR      r0,[pc,#16] ; [0x1814] = 0x20000070
        0x00001804:    6801        .h      LDR      r1,[r0,#0]
        0x00001806:    1c49        I.      ADDS     r1,r1,#1
        0x00001808:    6001        .`      STR      r1,[r0,#0]
        0x0000180a:    f3bf8f4f    ..O.    DSB      
        0x0000180e:    f3bf8f6f    ..o.    ISB      
        0x00001812:    4770        pG      BX       lr
    $d
        0x00001814:    20000070    p..     DCD    536871024
    $t
    i.vPortExitCritical
    vPortExitCritical
        0x00001818:    4905        .I      LDR      r1,[pc,#20] ; [0x1830] = 0x20000070
        0x0000181a:    6808        .h      LDR      r0,[r1,#0]
        0x0000181c:    2800        .(      CMP      r0,#0
        0x0000181e:    d004        ..      BEQ      0x182a ; vPortExitCritical + 18
        0x00001820:    1e40        @.      SUBS     r0,r0,#1
        0x00001822:    6008        .`      STR      r0,[r1,#0]
        0x00001824:    d100        ..      BNE      0x1828 ; vPortExitCritical + 16
        0x00001826:    b662        b.      CPSIE    i
        0x00001828:    4770        pG      BX       lr
        0x0000182a:    b672        r.      CPSID    i
        0x0000182c:    e7fe        ..      B        0x182c ; vPortExitCritical + 20
    $d
        0x0000182e:    0000        ..      DCW    0
        0x00001830:    20000070    p..     DCD    536871024
    $t
    i.vPortFree
    vPortFree
        0x00001834:    b570        p.      PUSH     {r4-r6,lr}
        0x00001836:    2800        .(      CMP      r0,#0
        0x00001838:    d01a        ..      BEQ      0x1870 ; vPortFree + 60
        0x0000183a:    4604        .F      MOV      r4,r0
        0x0000183c:    4d0d        .M      LDR      r5,[pc,#52] ; [0x1874] = 0x20000074
        0x0000183e:    3c08        .<      SUBS     r4,r4,#8
        0x00001840:    6860        `h      LDR      r0,[r4,#4]
        0x00001842:    68e9        .h      LDR      r1,[r5,#0xc]
        0x00001844:    4208        .B      TST      r0,r1
        0x00001846:    d101        ..      BNE      0x184c ; vPortFree + 24
        0x00001848:    b672        r.      CPSID    i
        0x0000184a:    e7fe        ..      B        0x184a ; vPortFree + 22
        0x0000184c:    6822        "h      LDR      r2,[r4,#0]
        0x0000184e:    2a00        .*      CMP      r2,#0
        0x00001850:    d001        ..      BEQ      0x1856 ; vPortFree + 34
        0x00001852:    b672        r.      CPSID    i
        0x00001854:    e7fe        ..      B        0x1854 ; vPortFree + 32
        0x00001856:    4388        .C      BICS     r0,r0,r1
        0x00001858:    6060        ``      STR      r0,[r4,#4]
        0x0000185a:    f000f99f    ....    BL       vTaskSuspendAll ; 0x1b9c
        0x0000185e:    6860        `h      LDR      r0,[r4,#4]
        0x00001860:    6869        ih      LDR      r1,[r5,#4]
        0x00001862:    1840        @.      ADDS     r0,r0,r1
        0x00001864:    6068        h`      STR      r0,[r5,#4]
        0x00001866:    4620         F      MOV      r0,r4
        0x00001868:    f7fffd00    ....    BL       prvInsertBlockIntoFreeList ; 0x126c
        0x0000186c:    f000fcf2    ....    BL       xTaskResumeAll ; 0x2254
        0x00001870:    bd70        p.      POP      {r4-r6,pc}
    $d
        0x00001872:    0000        ..      DCW    0
        0x00001874:    20000074    t..     DCD    536871028
    $t
    i.vPortYield
    vPortYield
        0x00001878:    2001        .       MOVS     r0,#1
        0x0000187a:    4904        .I      LDR      r1,[pc,#16] ; [0x188c] = 0xe000ed00
        0x0000187c:    0700        ..      LSLS     r0,r0,#28
        0x0000187e:    6048        H`      STR      r0,[r1,#4]
        0x00001880:    f3bf8f4f    ..O.    DSB      
        0x00001884:    f3bf8f6f    ..o.    ISB      
        0x00001888:    4770        pG      BX       lr
    $d
        0x0000188a:    0000        ..      DCW    0
        0x0000188c:    e000ed00    ....    DCD    3758157056
    $t
    i.vQueueAddToRegistry
    vQueueAddToRegistry
        0x00001890:    b510        ..      PUSH     {r4,lr}
        0x00001892:    4b07        .K      LDR      r3,[pc,#28] ; [0x18b0] = 0x2000008c
        0x00001894:    2200        ."      MOVS     r2,#0
        0x00001896:    00d4        ..      LSLS     r4,r2,#3
        0x00001898:    591c        .Y      LDR      r4,[r3,r4]
        0x0000189a:    2c00        .,      CMP      r4,#0
        0x0000189c:    d003        ..      BEQ      0x18a6 ; vQueueAddToRegistry + 22
        0x0000189e:    1c52        R.      ADDS     r2,r2,#1
        0x000018a0:    2a08        .*      CMP      r2,#8
        0x000018a2:    d3f8        ..      BCC      0x1896 ; vQueueAddToRegistry + 6
        0x000018a4:    bd10        ..      POP      {r4,pc}
        0x000018a6:    00d2        ..      LSLS     r2,r2,#3
        0x000018a8:    5099        .P      STR      r1,[r3,r2]
        0x000018aa:    18d1        ..      ADDS     r1,r2,r3
        0x000018ac:    6048        H`      STR      r0,[r1,#4]
        0x000018ae:    bd10        ..      POP      {r4,pc}
    $d
        0x000018b0:    2000008c    ...     DCD    536871052
    $t
    i.vQueueWaitForMessageRestricted
    vQueueWaitForMessageRestricted
        0x000018b4:    b570        p.      PUSH     {r4-r6,lr}
        0x000018b6:    4615        .F      MOV      r5,r2
        0x000018b8:    460e        .F      MOV      r6,r1
        0x000018ba:    4604        .F      MOV      r4,r0
        0x000018bc:    f7ffffa0    ....    BL       vPortEnterCritical ; 0x1800
        0x000018c0:    4620         F      MOV      r0,r4
        0x000018c2:    3040        @0      ADDS     r0,r0,#0x40
        0x000018c4:    2204        ."      MOVS     r2,#4
        0x000018c6:    5682        .V      LDRSB    r2,[r0,r2]
        0x000018c8:    2100        .!      MOVS     r1,#0
        0x000018ca:    1c52        R.      ADDS     r2,r2,#1
        0x000018cc:    d100        ..      BNE      0x18d0 ; vQueueWaitForMessageRestricted + 28
        0x000018ce:    7101        .q      STRB     r1,[r0,#4]
        0x000018d0:    2205        ."      MOVS     r2,#5
        0x000018d2:    5682        .V      LDRSB    r2,[r0,r2]
        0x000018d4:    1c52        R.      ADDS     r2,r2,#1
        0x000018d6:    d100        ..      BNE      0x18da ; vQueueWaitForMessageRestricted + 38
        0x000018d8:    7141        Aq      STRB     r1,[r0,#5]
        0x000018da:    f7ffff9d    ....    BL       vPortExitCritical ; 0x1818
        0x000018de:    6ba0        .k      LDR      r0,[r4,#0x38]
        0x000018e0:    2800        .(      CMP      r0,#0
        0x000018e2:    d105        ..      BNE      0x18f0 ; vQueueWaitForMessageRestricted + 60
        0x000018e4:    4620         F      MOV      r0,r4
        0x000018e6:    462a        *F      MOV      r2,r5
        0x000018e8:    4631        1F      MOV      r1,r6
        0x000018ea:    3024        $0      ADDS     r0,r0,#0x24
        0x000018ec:    f000f914    ....    BL       vTaskPlaceOnEventListRestricted ; 0x1b18
        0x000018f0:    4620         F      MOV      r0,r4
        0x000018f2:    f7fffe43    ..C.    BL       prvUnlockQueue ; 0x157c
        0x000018f6:    bd70        p.      POP      {r4-r6,pc}
    i.vTaskDelayUntil
    vTaskDelayUntil
        0x000018f8:    b570        p.      PUSH     {r4-r6,lr}
        0x000018fa:    2300        .#      MOVS     r3,#0
        0x000018fc:    460e        .F      MOV      r6,r1
        0x000018fe:    4605        .F      MOV      r5,r0
        0x00001900:    2800        .(      CMP      r0,#0
        0x00001902:    d007        ..      BEQ      0x1914 ; vTaskDelayUntil + 28
        0x00001904:    2e00        ..      CMP      r6,#0
        0x00001906:    d007        ..      BEQ      0x1918 ; vTaskDelayUntil + 32
        0x00001908:    4a13        .J      LDR      r2,[pc,#76] ; [0x1958] = 0x20000020
        0x0000190a:    6b10        .k      LDR      r0,[r2,#0x30]
        0x0000190c:    2800        .(      CMP      r0,#0
        0x0000190e:    d005        ..      BEQ      0x191c ; vTaskDelayUntil + 36
        0x00001910:    b672        r.      CPSID    i
        0x00001912:    e7fe        ..      B        0x1912 ; vTaskDelayUntil + 26
        0x00001914:    b672        r.      CPSID    i
        0x00001916:    e7fe        ..      B        0x1916 ; vTaskDelayUntil + 30
        0x00001918:    b672        r.      CPSID    i
        0x0000191a:    e7fe        ..      B        0x191a ; vTaskDelayUntil + 34
        0x0000191c:    f000f93e    ..>.    BL       vTaskSuspendAll ; 0x1b9c
        0x00001920:    68d2        .h      LDR      r2,[r2,#0xc]
        0x00001922:    682c        ,h      LDR      r4,[r5,#0]
        0x00001924:    19a1        ..      ADDS     r1,r4,r6
        0x00001926:    4294        .B      CMP      r4,r2
        0x00001928:    d902        ..      BLS      0x1930 ; vTaskDelayUntil + 56
        0x0000192a:    428c        .B      CMP      r4,r1
        0x0000192c:    d802        ..      BHI      0x1934 ; vTaskDelayUntil + 60
        0x0000192e:    e004        ..      B        0x193a ; vTaskDelayUntil + 66
        0x00001930:    428c        .B      CMP      r4,r1
        0x00001932:    d801        ..      BHI      0x1938 ; vTaskDelayUntil + 64
        0x00001934:    4291        .B      CMP      r1,r2
        0x00001936:    d900        ..      BLS      0x193a ; vTaskDelayUntil + 66
        0x00001938:    2301        .#      MOVS     r3,#1
        0x0000193a:    6029        )`      STR      r1,[r5,#0]
        0x0000193c:    2b00        .+      CMP      r3,#0
        0x0000193e:    d003        ..      BEQ      0x1948 ; vTaskDelayUntil + 80
        0x00001940:    1a88        ..      SUBS     r0,r1,r2
        0x00001942:    2100        .!      MOVS     r1,#0
        0x00001944:    f7fffafc    ....    BL       prvAddCurrentTaskToDelayedList ; 0xf40
        0x00001948:    f000fc84    ....    BL       xTaskResumeAll ; 0x2254
        0x0000194c:    2800        .(      CMP      r0,#0
        0x0000194e:    d101        ..      BNE      0x1954 ; vTaskDelayUntil + 92
        0x00001950:    f7ffff92    ....    BL       vPortYield ; 0x1878
        0x00001954:    bd70        p.      POP      {r4-r6,pc}
    $d
        0x00001956:    0000        ..      DCW    0
        0x00001958:    20000020     ..     DCD    536870944
    $t
    i.vTaskInternalSetTimeOutState
    vTaskInternalSetTimeOutState
        0x0000195c:    4902        .I      LDR      r1,[pc,#8] ; [0x1968] = 0x20000020
        0x0000195e:    6a0a        .j      LDR      r2,[r1,#0x20]
        0x00001960:    6002        .`      STR      r2,[r0,#0]
        0x00001962:    68c9        .h      LDR      r1,[r1,#0xc]
        0x00001964:    6041        A`      STR      r1,[r0,#4]
        0x00001966:    4770        pG      BX       lr
    $d
        0x00001968:    20000020     ..     DCD    536870944
    $t
    i.vTaskLogMsg1s
    vTaskLogMsg1s
        0x0000196c:    b508        ..      PUSH     {r3,lr}
        0x0000196e:    247d        }$      MOVS     r4,#0x7d
        0x00001970:    00e4        ..      LSLS     r4,r4,#3
        0x00001972:    f000fba1    ....    BL       xTaskGetTickCount ; 0x20b8
        0x00001976:    9000        ..      STR      r0,[sp,#0]
        0x00001978:    4620         F      MOV      r0,r4
        0x0000197a:    4360        `C      MULS     r0,r4,r0
        0x0000197c:    4621        !F      MOV      r1,r4
        0x0000197e:    f7fefc21    ..!.    BL       __aeabi_uidiv ; 0x1c4
        0x00001982:    4d0c        .M      LDR      r5,[pc,#48] ; [0x19b4] = 0x20000010
        0x00001984:    4606        .F      MOV      r6,r0
        0x00001986:    4631        1F      MOV      r1,r6
        0x00001988:    4668        hF      MOV      r0,sp
        0x0000198a:    f7ffffb5    ....    BL       vTaskDelayUntil ; 0x18f8
        0x0000198e:    f000f905    ....    BL       vTaskSuspendAll ; 0x1b9c
        0x00001992:    f000f94d    ..M.    BL       xPortGetFreeHeapSize ; 0x1c30
        0x00001996:    68ea        .h      LDR      r2,[r5,#0xc]
        0x00001998:    4603        .F      MOV      r3,r0
        0x0000199a:    1c52        R.      ADDS     r2,r2,#1
        0x0000199c:    4621        !F      MOV      r1,r4
        0x0000199e:    a006        ..      ADR      r0,{pc}+0x1a ; 0x19b8
        0x000019a0:    60ea        .`      STR      r2,[r5,#0xc]
        0x000019a2:    f7fff825    ..%.    BL       __0printf$8 ; 0x9f0
        0x000019a6:    480f        .H      LDR      r0,[pc,#60] ; [0x19e4] = 0x2000000c
        0x000019a8:    2000        .       MOVS     r0,#0
        0x000019aa:    46c0        .F      MOV      r8,r8
        0x000019ac:    f000fc52    ..R.    BL       xTaskResumeAll ; 0x2254
        0x000019b0:    e7e9        ..      B        0x1986 ; vTaskLogMsg1s + 26
    $d
        0x000019b2:    0000        ..      DCW    0
        0x000019b4:    20000010    ...     DCD    536870928
        0x000019b8:    73615476    vTas    DCD    1935758454
        0x000019bc:    676f4c6b    kLog    DCD    1735347307
        0x000019c0:    3167734d    Msg1    DCD    828863309
        0x000019c4:    6f4c3a73    s:Lo    DCD    1867266675
        0x000019c8:    34252867    g(%4    DCD    874850407
        0x000019cc:    29736d64    dms)    DCD    695430500
        0x000019d0:    6434253a    :%4d    DCD    1681139002
        0x000019d4:    34252820     (%4    DCD    874850336
        0x000019d8:    79622064    d by    DCD    2036473956
        0x000019dc:    29736574    tes)    DCD    695428468
        0x000019e0:    00000a0d    ....    DCD    2573
        0x000019e4:    2000000c    ...     DCD    536870924
    $t
    i.vTaskLogMsg500ms
    vTaskLogMsg500ms
        0x000019e8:    b508        ..      PUSH     {r3,lr}
        0x000019ea:    24ff        .$      MOVS     r4,#0xff
        0x000019ec:    34f5        .4      ADDS     r4,r4,#0xf5
        0x000019ee:    f000fb63    ..c.    BL       xTaskGetTickCount ; 0x20b8
        0x000019f2:    9000        ..      STR      r0,[sp,#0]
        0x000019f4:    0060        `.      LSLS     r0,r4,#1
        0x000019f6:    4360        `C      MULS     r0,r4,r0
        0x000019f8:    0061        a.      LSLS     r1,r4,#1
        0x000019fa:    f7fefbe3    ....    BL       __aeabi_uidiv ; 0x1c4
        0x000019fe:    4d0c        .M      LDR      r5,[pc,#48] ; [0x1a30] = 0x20000010
        0x00001a00:    4606        .F      MOV      r6,r0
        0x00001a02:    4631        1F      MOV      r1,r6
        0x00001a04:    4668        hF      MOV      r0,sp
        0x00001a06:    f7ffff77    ..w.    BL       vTaskDelayUntil ; 0x18f8
        0x00001a0a:    f000f8c7    ....    BL       vTaskSuspendAll ; 0x1b9c
        0x00001a0e:    f000f90f    ....    BL       xPortGetFreeHeapSize ; 0x1c30
        0x00001a12:    686a        jh      LDR      r2,[r5,#4]
        0x00001a14:    4603        .F      MOV      r3,r0
        0x00001a16:    1c52        R.      ADDS     r2,r2,#1
        0x00001a18:    4621        !F      MOV      r1,r4
        0x00001a1a:    a006        ..      ADR      r0,{pc}+0x1a ; 0x1a34
        0x00001a1c:    606a        j`      STR      r2,[r5,#4]
        0x00001a1e:    f7feffe7    ....    BL       __0printf$8 ; 0x9f0
        0x00001a22:    4810        .H      LDR      r0,[pc,#64] ; [0x1a64] = 0x2000000c
        0x00001a24:    2000        .       MOVS     r0,#0
        0x00001a26:    46c0        .F      MOV      r8,r8
        0x00001a28:    f000fc14    ....    BL       xTaskResumeAll ; 0x2254
        0x00001a2c:    e7e9        ..      B        0x1a02 ; vTaskLogMsg500ms + 26
    $d
        0x00001a2e:    0000        ..      DCW    0
        0x00001a30:    20000010    ...     DCD    536870928
        0x00001a34:    73615476    vTas    DCD    1935758454
        0x00001a38:    676f4c6b    kLog    DCD    1735347307
        0x00001a3c:    3567734d    Msg5    DCD    895972173
        0x00001a40:    736d3030    00ms    DCD    1936535600
        0x00001a44:    676f4c3a    :Log    DCD    1735347258
        0x00001a48:    64342528    (%4d    DCD    1681138984
        0x00001a4c:    3a29736d    ms):    DCD    975795053
        0x00001a50:    20643425    %4d     DCD    543437861
        0x00001a54:    64342528    (%4d    DCD    1681138984
        0x00001a58:    74796220     byt    DCD    1954112032
        0x00001a5c:    0d297365    es).    DCD    220820325
        0x00001a60:    0000000a    ....    DCD    10
        0x00001a64:    2000000c    ...     DCD    536870924
    $t
    i.vTaskLogMsg5s
    vTaskLogMsg5s
        0x00001a68:    b508        ..      PUSH     {r3,lr}
        0x00001a6a:    4c11        .L      LDR      r4,[pc,#68] ; [0x1ab0] = 0x1388
        0x00001a6c:    f000fb24    ..$.    BL       xTaskGetTickCount ; 0x20b8
        0x00001a70:    9000        ..      STR      r0,[sp,#0]
        0x00001a72:    207d        }       MOVS     r0,#0x7d
        0x00001a74:    00c0        ..      LSLS     r0,r0,#3
        0x00001a76:    217d        }!      MOVS     r1,#0x7d
        0x00001a78:    4360        `C      MULS     r0,r4,r0
        0x00001a7a:    00c9        ..      LSLS     r1,r1,#3
        0x00001a7c:    f7fefba2    ....    BL       __aeabi_uidiv ; 0x1c4
        0x00001a80:    4d0c        .M      LDR      r5,[pc,#48] ; [0x1ab4] = 0x20000010
        0x00001a82:    4606        .F      MOV      r6,r0
        0x00001a84:    4631        1F      MOV      r1,r6
        0x00001a86:    4668        hF      MOV      r0,sp
        0x00001a88:    f7ffff36    ..6.    BL       vTaskDelayUntil ; 0x18f8
        0x00001a8c:    f000f886    ....    BL       vTaskSuspendAll ; 0x1b9c
        0x00001a90:    f000f8ce    ....    BL       xPortGetFreeHeapSize ; 0x1c30
        0x00001a94:    68aa        .h      LDR      r2,[r5,#8]
        0x00001a96:    4603        .F      MOV      r3,r0
        0x00001a98:    1c52        R.      ADDS     r2,r2,#1
        0x00001a9a:    4621        !F      MOV      r1,r4
        0x00001a9c:    a006        ..      ADR      r0,{pc}+0x1c ; 0x1ab8
        0x00001a9e:    60aa        .`      STR      r2,[r5,#8]
        0x00001aa0:    f7feffa6    ....    BL       __0printf$8 ; 0x9f0
        0x00001aa4:    480f        .H      LDR      r0,[pc,#60] ; [0x1ae4] = 0x2000000c
        0x00001aa6:    2000        .       MOVS     r0,#0
        0x00001aa8:    46c0        .F      MOV      r8,r8
        0x00001aaa:    f000fbd3    ....    BL       xTaskResumeAll ; 0x2254
        0x00001aae:    e7e9        ..      B        0x1a84 ; vTaskLogMsg5s + 28
    $d
        0x00001ab0:    00001388    ....    DCD    5000
        0x00001ab4:    20000010    ...     DCD    536870928
        0x00001ab8:    73615476    vTas    DCD    1935758454
        0x00001abc:    676f4c6b    kLog    DCD    1735347307
        0x00001ac0:    3567734d    Msg5    DCD    895972173
        0x00001ac4:    6f4c3a73    s:Lo    DCD    1867266675
        0x00001ac8:    34252867    g(%4    DCD    874850407
        0x00001acc:    29736d64    dms)    DCD    695430500
        0x00001ad0:    6434253a    :%4d    DCD    1681139002
        0x00001ad4:    34252820     (%4    DCD    874850336
        0x00001ad8:    79622064    d by    DCD    2036473956
        0x00001adc:    29736574    tes)    DCD    695428468
        0x00001ae0:    00000a0d    ....    DCD    2573
        0x00001ae4:    2000000c    ...     DCD    536870924
    $t
    i.vTaskMissedYield
    vTaskMissedYield
        0x00001ae8:    4901        .I      LDR      r1,[pc,#4] ; [0x1af0] = 0x20000020
        0x00001aea:    2001        .       MOVS     r0,#1
        0x00001aec:    61c8        .a      STR      r0,[r1,#0x1c]
        0x00001aee:    4770        pG      BX       lr
    $d
        0x00001af0:    20000020     ..     DCD    536870944
    $t
    i.vTaskPlaceOnEventList
    vTaskPlaceOnEventList
        0x00001af4:    b510        ..      PUSH     {r4,lr}
        0x00001af6:    460c        .F      MOV      r4,r1
        0x00001af8:    2800        .(      CMP      r0,#0
        0x00001afa:    d009        ..      BEQ      0x1b10 ; vTaskPlaceOnEventList + 28
        0x00001afc:    4905        .I      LDR      r1,[pc,#20] ; [0x1b14] = 0x20000020
        0x00001afe:    6809        .h      LDR      r1,[r1,#0]
        0x00001b00:    3118        .1      ADDS     r1,r1,#0x18
        0x00001b02:    f7fffe59    ..Y.    BL       vListInsert ; 0x17b8
        0x00001b06:    2101        .!      MOVS     r1,#1
        0x00001b08:    4620         F      MOV      r0,r4
        0x00001b0a:    f7fffa19    ....    BL       prvAddCurrentTaskToDelayedList ; 0xf40
        0x00001b0e:    bd10        ..      POP      {r4,pc}
        0x00001b10:    b672        r.      CPSID    i
        0x00001b12:    e7fe        ..      B        0x1b12 ; vTaskPlaceOnEventList + 30
    $d
        0x00001b14:    20000020     ..     DCD    536870944
    $t
    i.vTaskPlaceOnEventListRestricted
    vTaskPlaceOnEventListRestricted
        0x00001b18:    b570        p.      PUSH     {r4-r6,lr}
        0x00001b1a:    4614        .F      MOV      r4,r2
        0x00001b1c:    460d        .F      MOV      r5,r1
        0x00001b1e:    2800        .(      CMP      r0,#0
        0x00001b20:    d00d        ..      BEQ      0x1b3e ; vTaskPlaceOnEventListRestricted + 38
        0x00001b22:    4908        .I      LDR      r1,[pc,#32] ; [0x1b44] = 0x20000020
        0x00001b24:    6809        .h      LDR      r1,[r1,#0]
        0x00001b26:    3118        .1      ADDS     r1,r1,#0x18
        0x00001b28:    f7fffe5e    ..^.    BL       vListInsertEnd ; 0x17e8
        0x00001b2c:    2c00        .,      CMP      r4,#0
        0x00001b2e:    d001        ..      BEQ      0x1b34 ; vTaskPlaceOnEventListRestricted + 28
        0x00001b30:    2500        .%      MOVS     r5,#0
        0x00001b32:    43ed        .C      MVNS     r5,r5
        0x00001b34:    4621        !F      MOV      r1,r4
        0x00001b36:    4628        (F      MOV      r0,r5
        0x00001b38:    f7fffa02    ....    BL       prvAddCurrentTaskToDelayedList ; 0xf40
        0x00001b3c:    bd70        p.      POP      {r4-r6,pc}
        0x00001b3e:    b672        r.      CPSID    i
        0x00001b40:    e7fe        ..      B        0x1b40 ; vTaskPlaceOnEventListRestricted + 40
    $d
        0x00001b42:    0000        ..      DCW    0
        0x00001b44:    20000020     ..     DCD    536870944
    $t
    i.vTaskStartScheduler
    vTaskStartScheduler
        0x00001b48:    b51c        ..      PUSH     {r2-r4,lr}
        0x00001b4a:    4810        .H      LDR      r0,[pc,#64] ; [0x1b8c] = 0x2000004c
        0x00001b4c:    2400        .$      MOVS     r4,#0
        0x00001b4e:    9001        ..      STR      r0,[sp,#4]
        0x00001b50:    4623        #F      MOV      r3,r4
        0x00001b52:    2280        ."      MOVS     r2,#0x80
        0x00001b54:    a10e        ..      ADR      r1,{pc}+0x3c ; 0x1b90
        0x00001b56:    9400        ..      STR      r4,[sp,#0]
        0x00001b58:    480f        .H      LDR      r0,[pc,#60] ; [0x1b98] = 0x1191
        0x00001b5a:    f000fa75    ..u.    BL       xTaskCreate ; 0x2048
        0x00001b5e:    2801        .(      CMP      r0,#1
        0x00001b60:    d103        ..      BNE      0x1b6a ; vTaskStartScheduler + 34
        0x00001b62:    f000fbcd    ....    BL       xTimerCreateTimerTask ; 0x2300
        0x00001b66:    2801        .(      CMP      r0,#1
        0x00001b68:    d003        ..      BEQ      0x1b72 ; vTaskStartScheduler + 42
        0x00001b6a:    1c40        @.      ADDS     r0,r0,#1
        0x00001b6c:    d10c        ..      BNE      0x1b88 ; vTaskStartScheduler + 64
        0x00001b6e:    b672        r.      CPSID    i
        0x00001b70:    e7fe        ..      B        0x1b70 ; vTaskStartScheduler + 40
        0x00001b72:    b672        r.      CPSID    i
        0x00001b74:    2100        .!      MOVS     r1,#0
        0x00001b76:    4805        .H      LDR      r0,[pc,#20] ; [0x1b8c] = 0x2000004c
        0x00001b78:    43c9        .C      MVNS     r1,r1
        0x00001b7a:    382c        ,8      SUBS     r0,r0,#0x2c
        0x00001b7c:    6281        .b      STR      r1,[r0,#0x28]
        0x00001b7e:    2101        .!      MOVS     r1,#1
        0x00001b80:    6141        Aa      STR      r1,[r0,#0x14]
        0x00001b82:    60c4        .`      STR      r4,[r0,#0xc]
        0x00001b84:    f000f85a    ..Z.    BL       xPortStartScheduler ; 0x1c3c
        0x00001b88:    bd1c        ..      POP      {r2-r4,pc}
    $d
        0x00001b8a:    0000        ..      DCW    0
        0x00001b8c:    2000004c    L..     DCD    536870988
        0x00001b90:    454c4449    IDLE    DCD    1162626121
        0x00001b94:    00000000    ....    DCD    0
        0x00001b98:    00001191    ....    DCD    4497
    $t
    i.vTaskSuspendAll
    vTaskSuspendAll
        0x00001b9c:    4802        .H      LDR      r0,[pc,#8] ; [0x1ba8] = 0x20000020
        0x00001b9e:    6b01        .k      LDR      r1,[r0,#0x30]
        0x00001ba0:    1c49        I.      ADDS     r1,r1,#1
        0x00001ba2:    6301        .c      STR      r1,[r0,#0x30]
        0x00001ba4:    4770        pG      BX       lr
    $d
        0x00001ba6:    0000        ..      DCW    0
        0x00001ba8:    20000020     ..     DCD    536870944
    $t
    i.vTaskSwitchContext
    vTaskSwitchContext
        0x00001bac:    b510        ..      PUSH     {r4,lr}
        0x00001bae:    4c1d        .L      LDR      r4,[pc,#116] ; [0x1c24] = 0x20000020
        0x00001bb0:    6b20         k      LDR      r0,[r4,#0x30]
        0x00001bb2:    2800        .(      CMP      r0,#0
        0x00001bb4:    d002        ..      BEQ      0x1bbc ; vTaskSwitchContext + 16
        0x00001bb6:    2001        .       MOVS     r0,#1
        0x00001bb8:    61e0        .a      STR      r0,[r4,#0x1c]
        0x00001bba:    bd10        ..      POP      {r4,pc}
        0x00001bbc:    2000        .       MOVS     r0,#0
        0x00001bbe:    61e0        .a      STR      r0,[r4,#0x1c]
        0x00001bc0:    6820         h      LDR      r0,[r4,#0]
        0x00001bc2:    4919        .I      LDR      r1,[pc,#100] ; [0x1c28] = 0xa5a5a5a5
        0x00001bc4:    6b00        .k      LDR      r0,[r0,#0x30]
        0x00001bc6:    6802        .h      LDR      r2,[r0,#0]
        0x00001bc8:    428a        .B      CMP      r2,r1
        0x00001bca:    d108        ..      BNE      0x1bde ; vTaskSwitchContext + 50
        0x00001bcc:    6842        Bh      LDR      r2,[r0,#4]
        0x00001bce:    428a        .B      CMP      r2,r1
        0x00001bd0:    d105        ..      BNE      0x1bde ; vTaskSwitchContext + 50
        0x00001bd2:    6882        .h      LDR      r2,[r0,#8]
        0x00001bd4:    428a        .B      CMP      r2,r1
        0x00001bd6:    d102        ..      BNE      0x1bde ; vTaskSwitchContext + 50
        0x00001bd8:    68c0        .h      LDR      r0,[r0,#0xc]
        0x00001bda:    4288        .B      CMP      r0,r1
        0x00001bdc:    d004        ..      BEQ      0x1be8 ; vTaskSwitchContext + 60
        0x00001bde:    6821        !h      LDR      r1,[r4,#0]
        0x00001be0:    6820         h      LDR      r0,[r4,#0]
        0x00001be2:    3134        41      ADDS     r1,r1,#0x34
        0x00001be4:    f7fffdd7    ....    BL       vApplicationStackOverflowHook ; 0x1796
        0x00001be8:    6920         i      LDR      r0,[r4,#0x10]
        0x00001bea:    4910        .I      LDR      r1,[pc,#64] ; [0x1c2c] = 0x200000cc
        0x00001bec:    e002        ..      B        0x1bf4 ; vTaskSwitchContext + 72
        0x00001bee:    2800        .(      CMP      r0,#0
        0x00001bf0:    d015        ..      BEQ      0x1c1e ; vTaskSwitchContext + 114
        0x00001bf2:    1e40        @.      SUBS     r0,r0,#1
        0x00001bf4:    2214        ."      MOVS     r2,#0x14
        0x00001bf6:    4342        BC      MULS     r2,r0,r2
        0x00001bf8:    588a        .X      LDR      r2,[r1,r2]
        0x00001bfa:    2a00        .*      CMP      r2,#0
        0x00001bfc:    d0f7        ..      BEQ      0x1bee ; vTaskSwitchContext + 66
        0x00001bfe:    2214        ."      MOVS     r2,#0x14
        0x00001c00:    4342        BC      MULS     r2,r0,r2
        0x00001c02:    1851        Q.      ADDS     r1,r2,r1
        0x00001c04:    684a        Jh      LDR      r2,[r1,#4]
        0x00001c06:    460b        .F      MOV      r3,r1
        0x00001c08:    6852        Rh      LDR      r2,[r2,#4]
        0x00001c0a:    3308        .3      ADDS     r3,r3,#8
        0x00001c0c:    604a        J`      STR      r2,[r1,#4]
        0x00001c0e:    429a        .B      CMP      r2,r3
        0x00001c10:    d101        ..      BNE      0x1c16 ; vTaskSwitchContext + 106
        0x00001c12:    6852        Rh      LDR      r2,[r2,#4]
        0x00001c14:    604a        J`      STR      r2,[r1,#4]
        0x00001c16:    68d1        .h      LDR      r1,[r2,#0xc]
        0x00001c18:    6021        !`      STR      r1,[r4,#0]
        0x00001c1a:    6120         a      STR      r0,[r4,#0x10]
        0x00001c1c:    bd10        ..      POP      {r4,pc}
        0x00001c1e:    b672        r.      CPSID    i
        0x00001c20:    e7fe        ..      B        0x1c20 ; vTaskSwitchContext + 116
    $d
        0x00001c22:    0000        ..      DCW    0
        0x00001c24:    20000020     ..     DCD    536870944
        0x00001c28:    a5a5a5a5    ....    DCD    2779096485
        0x00001c2c:    200000cc    ...     DCD    536871116
    $t
    i.xPortGetFreeHeapSize
    xPortGetFreeHeapSize
        0x00001c30:    4801        .H      LDR      r0,[pc,#4] ; [0x1c38] = 0x20000074
        0x00001c32:    6840        @h      LDR      r0,[r0,#4]
        0x00001c34:    4770        pG      BX       lr
    $d
        0x00001c36:    0000        ..      DCW    0
        0x00001c38:    20000074    t..     DCD    536871028
    $t
    i.xPortStartScheduler
    xPortStartScheduler
        0x00001c3c:    b570        p.      PUSH     {r4-r6,lr}
        0x00001c3e:    480f        .H      LDR      r0,[pc,#60] ; [0x1c7c] = 0xe000ed00
        0x00001c40:    6a01        .j      LDR      r1,[r0,#0x20]
        0x00001c42:    22ff        ."      MOVS     r2,#0xff
        0x00001c44:    0412        ..      LSLS     r2,r2,#16
        0x00001c46:    4311        .C      ORRS     r1,r1,r2
        0x00001c48:    6201        .b      STR      r1,[r0,#0x20]
        0x00001c4a:    6a01        .j      LDR      r1,[r0,#0x20]
        0x00001c4c:    0212        ..      LSLS     r2,r2,#8
        0x00001c4e:    4311        .C      ORRS     r1,r1,r2
        0x00001c50:    6201        .b      STR      r1,[r0,#0x20]
        0x00001c52:    4c0b        .L      LDR      r4,[pc,#44] ; [0x1c80] = 0xe000e000
        0x00001c54:    2500        .%      MOVS     r5,#0
        0x00001c56:    6125        %a      STR      r5,[r4,#0x10]
        0x00001c58:    61a5        .a      STR      r5,[r4,#0x18]
        0x00001c5a:    480a        .H      LDR      r0,[pc,#40] ; [0x1c84] = 0x20000000
        0x00001c5c:    217d        }!      MOVS     r1,#0x7d
        0x00001c5e:    00c9        ..      LSLS     r1,r1,#3
        0x00001c60:    6800        .h      LDR      r0,[r0,#0]
        0x00001c62:    f7fefaaf    ....    BL       __aeabi_uidiv ; 0x1c4
        0x00001c66:    1e40        @.      SUBS     r0,r0,#1
        0x00001c68:    6160        `a      STR      r0,[r4,#0x14]
        0x00001c6a:    2007        .       MOVS     r0,#7
        0x00001c6c:    6120         a      STR      r0,[r4,#0x10]
        0x00001c6e:    4806        .H      LDR      r0,[pc,#24] ; [0x1c88] = 0x20000070
        0x00001c70:    6005        .`      STR      r5,[r0,#0]
        0x00001c72:    f7fefa3d    ..=.    BL       __asm___6_port_c_39a90d8d__prvPortStartFirstTask ; 0xf0
        0x00001c76:    2000        .       MOVS     r0,#0
        0x00001c78:    bd70        p.      POP      {r4-r6,pc}
    $d
        0x00001c7a:    0000        ..      DCW    0
        0x00001c7c:    e000ed00    ....    DCD    3758157056
        0x00001c80:    e000e000    ....    DCD    3758153728
        0x00001c84:    20000000    ...     DCD    536870912
        0x00001c88:    20000070    p..     DCD    536871024
    $t
    i.xQueueGenericCreate
    xQueueGenericCreate
        0x00001c8c:    b5f8        ..      PUSH     {r3-r7,lr}
        0x00001c8e:    4617        .F      MOV      r7,r2
        0x00001c90:    460e        .F      MOV      r6,r1
        0x00001c92:    0005        ..      MOVS     r5,r0
        0x00001c94:    d016        ..      BEQ      0x1cc4 ; xQueueGenericCreate + 56
        0x00001c96:    2e00        ..      CMP      r6,#0
        0x00001c98:    d016        ..      BEQ      0x1cc8 ; xQueueGenericCreate + 60
        0x00001c9a:    4370        pC      MULS     r0,r6,r0
        0x00001c9c:    3050        P0      ADDS     r0,r0,#0x50
        0x00001c9e:    f7fffca5    ....    BL       pvPortMalloc ; 0x15ec
        0x00001ca2:    0004        ..      MOVS     r4,r0
        0x00001ca4:    d00c        ..      BEQ      0x1cc0 ; xQueueGenericCreate + 52
        0x00001ca6:    4620         F      MOV      r0,r4
        0x00001ca8:    3050        P0      ADDS     r0,r0,#0x50
        0x00001caa:    2e00        ..      CMP      r6,#0
        0x00001cac:    d00e        ..      BEQ      0x1ccc ; xQueueGenericCreate + 64
        0x00001cae:    6020         `      STR      r0,[r4,#0]
        0x00001cb0:    6426        &d      STR      r6,[r4,#0x40]
        0x00001cb2:    4620         F      MOV      r0,r4
        0x00001cb4:    2101        .!      MOVS     r1,#1
        0x00001cb6:    63e5        .c      STR      r5,[r4,#0x3c]
        0x00001cb8:    f000f80a    ....    BL       xQueueGenericReset ; 0x1cd0
        0x00001cbc:    204c        L       MOVS     r0,#0x4c
        0x00001cbe:    5507        .U      STRB     r7,[r0,r4]
        0x00001cc0:    4620         F      MOV      r0,r4
        0x00001cc2:    bdf8        ..      POP      {r3-r7,pc}
        0x00001cc4:    b672        r.      CPSID    i
        0x00001cc6:    e7fe        ..      B        0x1cc6 ; xQueueGenericCreate + 58
        0x00001cc8:    2000        .       MOVS     r0,#0
        0x00001cca:    e7e7        ..      B        0x1c9c ; xQueueGenericCreate + 16
        0x00001ccc:    6024        $`      STR      r4,[r4,#0]
        0x00001cce:    e7ef        ..      B        0x1cb0 ; xQueueGenericCreate + 36
    i.xQueueGenericReset
    xQueueGenericReset
        0x00001cd0:    b570        p.      PUSH     {r4-r6,lr}
        0x00001cd2:    460d        .F      MOV      r5,r1
        0x00001cd4:    0004        ..      MOVS     r4,r0
        0x00001cd6:    d026        &.      BEQ      0x1d26 ; xQueueGenericReset + 86
        0x00001cd8:    f7fffd92    ....    BL       vPortEnterCritical ; 0x1800
        0x00001cdc:    6c21        !l      LDR      r1,[r4,#0x40]
        0x00001cde:    6be0        .k      LDR      r0,[r4,#0x3c]
        0x00001ce0:    4348        HC      MULS     r0,r1,r0
        0x00001ce2:    6821        !h      LDR      r1,[r4,#0]
        0x00001ce4:    1841        A.      ADDS     r1,r0,r1
        0x00001ce6:    60a1        .`      STR      r1,[r4,#8]
        0x00001ce8:    2100        .!      MOVS     r1,#0
        0x00001cea:    63a1        .c      STR      r1,[r4,#0x38]
        0x00001cec:    6821        !h      LDR      r1,[r4,#0]
        0x00001cee:    6061        a`      STR      r1,[r4,#4]
        0x00001cf0:    6be0        .k      LDR      r0,[r4,#0x3c]
        0x00001cf2:    6c21        !l      LDR      r1,[r4,#0x40]
        0x00001cf4:    1e40        @.      SUBS     r0,r0,#1
        0x00001cf6:    4348        HC      MULS     r0,r1,r0
        0x00001cf8:    6821        !h      LDR      r1,[r4,#0]
        0x00001cfa:    4622        "F      MOV      r2,r4
        0x00001cfc:    1841        A.      ADDS     r1,r0,r1
        0x00001cfe:    2000        .       MOVS     r0,#0
        0x00001d00:    43c0        .C      MVNS     r0,r0
        0x00001d02:    3240        @2      ADDS     r2,r2,#0x40
        0x00001d04:    60e1        .`      STR      r1,[r4,#0xc]
        0x00001d06:    7110        .q      STRB     r0,[r2,#4]
        0x00001d08:    7150        Pq      STRB     r0,[r2,#5]
        0x00001d0a:    4620         F      MOV      r0,r4
        0x00001d0c:    3010        .0      ADDS     r0,r0,#0x10
        0x00001d0e:    2d00        .-      CMP      r5,#0
        0x00001d10:    d00b        ..      BEQ      0x1d2a ; xQueueGenericReset + 90
        0x00001d12:    f7fffd43    ..C.    BL       vListInitialise ; 0x179c
        0x00001d16:    4620         F      MOV      r0,r4
        0x00001d18:    3024        $0      ADDS     r0,r0,#0x24
        0x00001d1a:    f7fffd3f    ..?.    BL       vListInitialise ; 0x179c
        0x00001d1e:    f7fffd7b    ..{.    BL       vPortExitCritical ; 0x1818
        0x00001d22:    2001        .       MOVS     r0,#1
        0x00001d24:    bd70        p.      POP      {r4-r6,pc}
        0x00001d26:    b672        r.      CPSID    i
        0x00001d28:    e7fe        ..      B        0x1d28 ; xQueueGenericReset + 88
        0x00001d2a:    6921        !i      LDR      r1,[r4,#0x10]
        0x00001d2c:    2900        .)      CMP      r1,#0
        0x00001d2e:    d0f6        ..      BEQ      0x1d1e ; xQueueGenericReset + 78
        0x00001d30:    f000fa5e    ..^.    BL       xTaskRemoveFromEventList ; 0x21f0
        0x00001d34:    2800        .(      CMP      r0,#0
        0x00001d36:    d0f2        ..      BEQ      0x1d1e ; xQueueGenericReset + 78
        0x00001d38:    f7fffd9e    ....    BL       vPortYield ; 0x1878
        0x00001d3c:    e7ef        ..      B        0x1d1e ; xQueueGenericReset + 78
    i.xQueueGenericSend
    xQueueGenericSend
        0x00001d3e:    b5ff        ..      PUSH     {r0-r7,lr}
        0x00001d40:    2500        .%      MOVS     r5,#0
        0x00001d42:    b083        ..      SUB      sp,sp,#0xc
        0x00001d44:    461e        .F      MOV      r6,r3
        0x00001d46:    4604        .F      MOV      r4,r0
        0x00001d48:    2800        .(      CMP      r0,#0
        0x00001d4a:    d003        ..      BEQ      0x1d54 ; xQueueGenericSend + 22
        0x00001d4c:    9804        ..      LDR      r0,[sp,#0x10]
        0x00001d4e:    2800        .(      CMP      r0,#0
        0x00001d50:    d002        ..      BEQ      0x1d58 ; xQueueGenericSend + 26
        0x00001d52:    e006        ..      B        0x1d62 ; xQueueGenericSend + 36
        0x00001d54:    b672        r.      CPSID    i
        0x00001d56:    e7fe        ..      B        0x1d56 ; xQueueGenericSend + 24
        0x00001d58:    6c20         l      LDR      r0,[r4,#0x40]
        0x00001d5a:    2800        .(      CMP      r0,#0
        0x00001d5c:    d001        ..      BEQ      0x1d62 ; xQueueGenericSend + 36
        0x00001d5e:    b672        r.      CPSID    i
        0x00001d60:    e7fe        ..      B        0x1d60 ; xQueueGenericSend + 34
        0x00001d62:    2e02        ..      CMP      r6,#2
        0x00001d64:    d104        ..      BNE      0x1d70 ; xQueueGenericSend + 50
        0x00001d66:    6be0        .k      LDR      r0,[r4,#0x3c]
        0x00001d68:    2801        .(      CMP      r0,#1
        0x00001d6a:    d001        ..      BEQ      0x1d70 ; xQueueGenericSend + 50
        0x00001d6c:    b672        r.      CPSID    i
        0x00001d6e:    e7fe        ..      B        0x1d6e ; xQueueGenericSend + 48
        0x00001d70:    f000f992    ....    BL       xTaskGetSchedulerState ; 0x2098
        0x00001d74:    2800        .(      CMP      r0,#0
        0x00001d76:    d104        ..      BNE      0x1d82 ; xQueueGenericSend + 68
        0x00001d78:    9805        ..      LDR      r0,[sp,#0x14]
        0x00001d7a:    2800        .(      CMP      r0,#0
        0x00001d7c:    d001        ..      BEQ      0x1d82 ; xQueueGenericSend + 68
        0x00001d7e:    b672        r.      CPSID    i
        0x00001d80:    e7fe        ..      B        0x1d80 ; xQueueGenericSend + 66
        0x00001d82:    f7fffd3d    ..=.    BL       vPortEnterCritical ; 0x1800
        0x00001d86:    6ba0        .k      LDR      r0,[r4,#0x38]
        0x00001d88:    6be1        .k      LDR      r1,[r4,#0x3c]
        0x00001d8a:    4288        .B      CMP      r0,r1
        0x00001d8c:    d307        ..      BCC      0x1d9e ; xQueueGenericSend + 96
        0x00001d8e:    2e02        ..      CMP      r6,#2
        0x00001d90:    d005        ..      BEQ      0x1d9e ; xQueueGenericSend + 96
        0x00001d92:    9805        ..      LDR      r0,[sp,#0x14]
        0x00001d94:    2800        .(      CMP      r0,#0
        0x00001d96:    d017        ..      BEQ      0x1dc8 ; xQueueGenericSend + 138
        0x00001d98:    2d00        .-      CMP      r5,#0
        0x00001d9a:    d018        ..      BEQ      0x1dce ; xQueueGenericSend + 144
        0x00001d9c:    e01b        ..      B        0x1dd6 ; xQueueGenericSend + 152
        0x00001d9e:    4632        2F      MOV      r2,r6
        0x00001da0:    4620         F      MOV      r0,r4
        0x00001da2:    9904        ..      LDR      r1,[sp,#0x10]
        0x00001da4:    f7fff991    ....    BL       prvCopyDataToQueue ; 0x10ca
        0x00001da8:    6a61        aj      LDR      r1,[r4,#0x24]
        0x00001daa:    2900        .)      CMP      r1,#0
        0x00001dac:    d003        ..      BEQ      0x1db6 ; xQueueGenericSend + 120
        0x00001dae:    4620         F      MOV      r0,r4
        0x00001db0:    3024        $0      ADDS     r0,r0,#0x24
        0x00001db2:    f000fa1d    ....    BL       xTaskRemoveFromEventList ; 0x21f0
        0x00001db6:    2800        .(      CMP      r0,#0
        0x00001db8:    d001        ..      BEQ      0x1dbe ; xQueueGenericSend + 128
        0x00001dba:    f7fffd5d    ..].    BL       vPortYield ; 0x1878
        0x00001dbe:    f7fffd2b    ..+.    BL       vPortExitCritical ; 0x1818
        0x00001dc2:    2001        .       MOVS     r0,#1
        0x00001dc4:    b007        ..      ADD      sp,sp,#0x1c
        0x00001dc6:    bdf0        ..      POP      {r4-r7,pc}
        0x00001dc8:    f7fffd26    ..&.    BL       vPortExitCritical ; 0x1818
        0x00001dcc:    e022        ".      B        0x1e14 ; xQueueGenericSend + 214
        0x00001dce:    4668        hF      MOV      r0,sp
        0x00001dd0:    f7fffdc4    ....    BL       vTaskInternalSetTimeOutState ; 0x195c
        0x00001dd4:    2501        .%      MOVS     r5,#1
        0x00001dd6:    f7fffd1f    ....    BL       vPortExitCritical ; 0x1818
        0x00001dda:    f7fffedf    ....    BL       vTaskSuspendAll ; 0x1b9c
        0x00001dde:    f7fffd0f    ....    BL       vPortEnterCritical ; 0x1800
        0x00001de2:    4620         F      MOV      r0,r4
        0x00001de4:    3040        @0      ADDS     r0,r0,#0x40
        0x00001de6:    2104        .!      MOVS     r1,#4
        0x00001de8:    5641        AV      LDRSB    r1,[r0,r1]
        0x00001dea:    1c49        I.      ADDS     r1,r1,#1
        0x00001dec:    d100        ..      BNE      0x1df0 ; xQueueGenericSend + 178
        0x00001dee:    7101        .q      STRB     r1,[r0,#4]
        0x00001df0:    2105        .!      MOVS     r1,#5
        0x00001df2:    5641        AV      LDRSB    r1,[r0,r1]
        0x00001df4:    1c49        I.      ADDS     r1,r1,#1
        0x00001df6:    d100        ..      BNE      0x1dfa ; xQueueGenericSend + 188
        0x00001df8:    7141        Aq      STRB     r1,[r0,#5]
        0x00001dfa:    f7fffd0d    ....    BL       vPortExitCritical ; 0x1818
        0x00001dfe:    a905        ..      ADD      r1,sp,#0x14
        0x00001e00:    4668        hF      MOV      r0,sp
        0x00001e02:    f000f8f3    ....    BL       xTaskCheckForTimeOut ; 0x1fec
        0x00001e06:    2800        .(      CMP      r0,#0
        0x00001e08:    d006        ..      BEQ      0x1e18 ; xQueueGenericSend + 218
        0x00001e0a:    4620         F      MOV      r0,r4
        0x00001e0c:    f7fffbb6    ....    BL       prvUnlockQueue ; 0x157c
        0x00001e10:    f000fa20    .. .    BL       xTaskResumeAll ; 0x2254
        0x00001e14:    2000        .       MOVS     r0,#0
        0x00001e16:    e7d5        ..      B        0x1dc4 ; xQueueGenericSend + 134
        0x00001e18:    f7fffcf2    ....    BL       vPortEnterCritical ; 0x1800
        0x00001e1c:    6ba0        .k      LDR      r0,[r4,#0x38]
        0x00001e1e:    6be1        .k      LDR      r1,[r4,#0x3c]
        0x00001e20:    4288        .B      CMP      r0,r1
        0x00001e22:    d101        ..      BNE      0x1e28 ; xQueueGenericSend + 234
        0x00001e24:    2701        .'      MOVS     r7,#1
        0x00001e26:    e000        ..      B        0x1e2a ; xQueueGenericSend + 236
        0x00001e28:    2700        .'      MOVS     r7,#0
        0x00001e2a:    f7fffcf5    ....    BL       vPortExitCritical ; 0x1818
        0x00001e2e:    2f00        ./      CMP      r7,#0
        0x00001e30:    d00e        ..      BEQ      0x1e50 ; xQueueGenericSend + 274
        0x00001e32:    4620         F      MOV      r0,r4
        0x00001e34:    3010        .0      ADDS     r0,r0,#0x10
        0x00001e36:    9905        ..      LDR      r1,[sp,#0x14]
        0x00001e38:    f7fffe5c    ..\.    BL       vTaskPlaceOnEventList ; 0x1af4
        0x00001e3c:    4620         F      MOV      r0,r4
        0x00001e3e:    f7fffb9d    ....    BL       prvUnlockQueue ; 0x157c
        0x00001e42:    f000fa07    ....    BL       xTaskResumeAll ; 0x2254
        0x00001e46:    2800        .(      CMP      r0,#0
        0x00001e48:    d19b        ..      BNE      0x1d82 ; xQueueGenericSend + 68
        0x00001e4a:    f7fffd15    ....    BL       vPortYield ; 0x1878
        0x00001e4e:    e798        ..      B        0x1d82 ; xQueueGenericSend + 68
        0x00001e50:    4620         F      MOV      r0,r4
        0x00001e52:    f7fffb93    ....    BL       prvUnlockQueue ; 0x157c
        0x00001e56:    f000f9fd    ....    BL       xTaskResumeAll ; 0x2254
        0x00001e5a:    e792        ..      B        0x1d82 ; xQueueGenericSend + 68
    i.xQueueGenericSendFromISR
    xQueueGenericSendFromISR
        0x00001e5c:    b5ff        ..      PUSH     {r0-r7,lr}
        0x00001e5e:    b081        ..      SUB      sp,sp,#4
        0x00001e60:    461e        .F      MOV      r6,r3
        0x00001e62:    0004        ..      MOVS     r4,r0
        0x00001e64:    d003        ..      BEQ      0x1e6e ; xQueueGenericSendFromISR + 18
        0x00001e66:    9802        ..      LDR      r0,[sp,#8]
        0x00001e68:    2800        .(      CMP      r0,#0
        0x00001e6a:    d002        ..      BEQ      0x1e72 ; xQueueGenericSendFromISR + 22
        0x00001e6c:    e006        ..      B        0x1e7c ; xQueueGenericSendFromISR + 32
        0x00001e6e:    b672        r.      CPSID    i
        0x00001e70:    e7fe        ..      B        0x1e70 ; xQueueGenericSendFromISR + 20
        0x00001e72:    6c20         l      LDR      r0,[r4,#0x40]
        0x00001e74:    2800        .(      CMP      r0,#0
        0x00001e76:    d001        ..      BEQ      0x1e7c ; xQueueGenericSendFromISR + 32
        0x00001e78:    b672        r.      CPSID    i
        0x00001e7a:    e7fe        ..      B        0x1e7a ; xQueueGenericSendFromISR + 30
        0x00001e7c:    2e02        ..      CMP      r6,#2
        0x00001e7e:    d104        ..      BNE      0x1e8a ; xQueueGenericSendFromISR + 46
        0x00001e80:    6be0        .k      LDR      r0,[r4,#0x3c]
        0x00001e82:    2801        .(      CMP      r0,#1
        0x00001e84:    d001        ..      BEQ      0x1e8a ; xQueueGenericSendFromISR + 46
        0x00001e86:    b672        r.      CPSID    i
        0x00001e88:    e7fe        ..      B        0x1e88 ; xQueueGenericSendFromISR + 44
        0x00001e8a:    f7fef945    ..E.    BL       ulSetInterruptMaskFromISR ; 0x118
        0x00001e8e:    9000        ..      STR      r0,[sp,#0]
        0x00001e90:    6ba0        .k      LDR      r0,[r4,#0x38]
        0x00001e92:    6be1        .k      LDR      r1,[r4,#0x3c]
        0x00001e94:    4288        .B      CMP      r0,r1
        0x00001e96:    d308        ..      BCC      0x1eaa ; xQueueGenericSendFromISR + 78
        0x00001e98:    2e02        ..      CMP      r6,#2
        0x00001e9a:    d006        ..      BEQ      0x1eaa ; xQueueGenericSendFromISR + 78
        0x00001e9c:    2400        .$      MOVS     r4,#0
        0x00001e9e:    9800        ..      LDR      r0,[sp,#0]
        0x00001ea0:    f7fef93e    ..>.    BL       vClearInterruptMaskFromISR ; 0x120
        0x00001ea4:    4620         F      MOV      r0,r4
        0x00001ea6:    b005        ..      ADD      sp,sp,#0x14
        0x00001ea8:    bdf0        ..      POP      {r4-r7,pc}
        0x00001eaa:    4620         F      MOV      r0,r4
        0x00001eac:    3040        @0      ADDS     r0,r0,#0x40
        0x00001eae:    2505        .%      MOVS     r5,#5
        0x00001eb0:    5745        EW      LDRSB    r5,[r0,r5]
        0x00001eb2:    4607        .F      MOV      r7,r0
        0x00001eb4:    4632        2F      MOV      r2,r6
        0x00001eb6:    4620         F      MOV      r0,r4
        0x00001eb8:    9902        ..      LDR      r1,[sp,#8]
        0x00001eba:    f7fff906    ....    BL       prvCopyDataToQueue ; 0x10ca
        0x00001ebe:    1c68        h.      ADDS     r0,r5,#1
        0x00001ec0:    d003        ..      BEQ      0x1eca ; xQueueGenericSendFromISR + 110
        0x00001ec2:    1c6d        m.      ADDS     r5,r5,#1
        0x00001ec4:    717d        }q      STRB     r5,[r7,#5]
        0x00001ec6:    2401        .$      MOVS     r4,#1
        0x00001ec8:    e7e9        ..      B        0x1e9e ; xQueueGenericSendFromISR + 66
        0x00001eca:    6a60        `j      LDR      r0,[r4,#0x24]
        0x00001ecc:    2800        .(      CMP      r0,#0
        0x00001ece:    d0fa        ..      BEQ      0x1ec6 ; xQueueGenericSendFromISR + 106
        0x00001ed0:    4620         F      MOV      r0,r4
        0x00001ed2:    3024        $0      ADDS     r0,r0,#0x24
        0x00001ed4:    f000f98c    ....    BL       xTaskRemoveFromEventList ; 0x21f0
        0x00001ed8:    2800        .(      CMP      r0,#0
        0x00001eda:    d0f4        ..      BEQ      0x1ec6 ; xQueueGenericSendFromISR + 106
        0x00001edc:    9803        ..      LDR      r0,[sp,#0xc]
        0x00001ede:    2800        .(      CMP      r0,#0
        0x00001ee0:    d0f1        ..      BEQ      0x1ec6 ; xQueueGenericSendFromISR + 106
        0x00001ee2:    2101        .!      MOVS     r1,#1
        0x00001ee4:    6001        .`      STR      r1,[r0,#0]
        0x00001ee6:    e7ee        ..      B        0x1ec6 ; xQueueGenericSendFromISR + 106
    i.xQueueReceive
    xQueueReceive
        0x00001ee8:    b5f7        ..      PUSH     {r0-r2,r4-r7,lr}
        0x00001eea:    2500        .%      MOVS     r5,#0
        0x00001eec:    b082        ..      SUB      sp,sp,#8
        0x00001eee:    4604        .F      MOV      r4,r0
        0x00001ef0:    2800        .(      CMP      r0,#0
        0x00001ef2:    d003        ..      BEQ      0x1efc ; xQueueReceive + 20
        0x00001ef4:    9803        ..      LDR      r0,[sp,#0xc]
        0x00001ef6:    2800        .(      CMP      r0,#0
        0x00001ef8:    d002        ..      BEQ      0x1f00 ; xQueueReceive + 24
        0x00001efa:    e006        ..      B        0x1f0a ; xQueueReceive + 34
        0x00001efc:    b672        r.      CPSID    i
        0x00001efe:    e7fe        ..      B        0x1efe ; xQueueReceive + 22
        0x00001f00:    6c20         l      LDR      r0,[r4,#0x40]
        0x00001f02:    2800        .(      CMP      r0,#0
        0x00001f04:    d001        ..      BEQ      0x1f0a ; xQueueReceive + 34
        0x00001f06:    b672        r.      CPSID    i
        0x00001f08:    e7fe        ..      B        0x1f08 ; xQueueReceive + 32
        0x00001f0a:    f000f8c5    ....    BL       xTaskGetSchedulerState ; 0x2098
        0x00001f0e:    2600        .&      MOVS     r6,#0
        0x00001f10:    2800        .(      CMP      r0,#0
        0x00001f12:    d104        ..      BNE      0x1f1e ; xQueueReceive + 54
        0x00001f14:    9804        ..      LDR      r0,[sp,#0x10]
        0x00001f16:    2800        .(      CMP      r0,#0
        0x00001f18:    d001        ..      BEQ      0x1f1e ; xQueueReceive + 54
        0x00001f1a:    b672        r.      CPSID    i
        0x00001f1c:    e7fe        ..      B        0x1f1c ; xQueueReceive + 52
        0x00001f1e:    f7fffc6f    ..o.    BL       vPortEnterCritical ; 0x1800
        0x00001f22:    6ba7        .k      LDR      r7,[r4,#0x38]
        0x00001f24:    2f00        ./      CMP      r7,#0
        0x00001f26:    d015        ..      BEQ      0x1f54 ; xQueueReceive + 108
        0x00001f28:    4620         F      MOV      r0,r4
        0x00001f2a:    9903        ..      LDR      r1,[sp,#0xc]
        0x00001f2c:    f7fff8ba    ....    BL       prvCopyDataFromQueue ; 0x10a4
        0x00001f30:    1e7f        ..      SUBS     r7,r7,#1
        0x00001f32:    63a7        .c      STR      r7,[r4,#0x38]
        0x00001f34:    6920         i      LDR      r0,[r4,#0x10]
        0x00001f36:    2800        .(      CMP      r0,#0
        0x00001f38:    d007        ..      BEQ      0x1f4a ; xQueueReceive + 98
        0x00001f3a:    4620         F      MOV      r0,r4
        0x00001f3c:    3010        .0      ADDS     r0,r0,#0x10
        0x00001f3e:    f000f957    ..W.    BL       xTaskRemoveFromEventList ; 0x21f0
        0x00001f42:    2800        .(      CMP      r0,#0
        0x00001f44:    d001        ..      BEQ      0x1f4a ; xQueueReceive + 98
        0x00001f46:    f7fffc97    ....    BL       vPortYield ; 0x1878
        0x00001f4a:    f7fffc65    ..e.    BL       vPortExitCritical ; 0x1818
        0x00001f4e:    2001        .       MOVS     r0,#1
        0x00001f50:    b005        ..      ADD      sp,sp,#0x14
        0x00001f52:    bdf0        ..      POP      {r4-r7,pc}
        0x00001f54:    9804        ..      LDR      r0,[sp,#0x10]
        0x00001f56:    2800        .(      CMP      r0,#0
        0x00001f58:    d002        ..      BEQ      0x1f60 ; xQueueReceive + 120
        0x00001f5a:    2d00        .-      CMP      r5,#0
        0x00001f5c:    d003        ..      BEQ      0x1f66 ; xQueueReceive + 126
        0x00001f5e:    e006        ..      B        0x1f6e ; xQueueReceive + 134
        0x00001f60:    f7fffc5a    ..Z.    BL       vPortExitCritical ; 0x1818
        0x00001f64:    e027        '.      B        0x1fb6 ; xQueueReceive + 206
        0x00001f66:    4668        hF      MOV      r0,sp
        0x00001f68:    f7fffcf8    ....    BL       vTaskInternalSetTimeOutState ; 0x195c
        0x00001f6c:    2501        .%      MOVS     r5,#1
        0x00001f6e:    f7fffc53    ..S.    BL       vPortExitCritical ; 0x1818
        0x00001f72:    f7fffe13    ....    BL       vTaskSuspendAll ; 0x1b9c
        0x00001f76:    f7fffc43    ..C.    BL       vPortEnterCritical ; 0x1800
        0x00001f7a:    4620         F      MOV      r0,r4
        0x00001f7c:    3040        @0      ADDS     r0,r0,#0x40
        0x00001f7e:    2104        .!      MOVS     r1,#4
        0x00001f80:    5641        AV      LDRSB    r1,[r0,r1]
        0x00001f82:    1c49        I.      ADDS     r1,r1,#1
        0x00001f84:    d100        ..      BNE      0x1f88 ; xQueueReceive + 160
        0x00001f86:    7106        .q      STRB     r6,[r0,#4]
        0x00001f88:    2105        .!      MOVS     r1,#5
        0x00001f8a:    5641        AV      LDRSB    r1,[r0,r1]
        0x00001f8c:    1c49        I.      ADDS     r1,r1,#1
        0x00001f8e:    d100        ..      BNE      0x1f92 ; xQueueReceive + 170
        0x00001f90:    7146        Fq      STRB     r6,[r0,#5]
        0x00001f92:    f7fffc41    ..A.    BL       vPortExitCritical ; 0x1818
        0x00001f96:    a904        ..      ADD      r1,sp,#0x10
        0x00001f98:    4668        hF      MOV      r0,sp
        0x00001f9a:    f000f827    ..'.    BL       xTaskCheckForTimeOut ; 0x1fec
        0x00001f9e:    2800        .(      CMP      r0,#0
        0x00001fa0:    4620         F      MOV      r0,r4
        0x00001fa2:    d00a        ..      BEQ      0x1fba ; xQueueReceive + 210
        0x00001fa4:    f7fffaea    ....    BL       prvUnlockQueue ; 0x157c
        0x00001fa8:    f000f954    ..T.    BL       xTaskResumeAll ; 0x2254
        0x00001fac:    4620         F      MOV      r0,r4
        0x00001fae:    f7fff99f    ....    BL       prvIsQueueEmpty ; 0x12f0
        0x00001fb2:    2800        .(      CMP      r0,#0
        0x00001fb4:    d0b3        ..      BEQ      0x1f1e ; xQueueReceive + 54
        0x00001fb6:    2000        .       MOVS     r0,#0
        0x00001fb8:    e7ca        ..      B        0x1f50 ; xQueueReceive + 104
        0x00001fba:    f7fff999    ....    BL       prvIsQueueEmpty ; 0x12f0
        0x00001fbe:    2800        .(      CMP      r0,#0
        0x00001fc0:    d00e        ..      BEQ      0x1fe0 ; xQueueReceive + 248
        0x00001fc2:    4620         F      MOV      r0,r4
        0x00001fc4:    3024        $0      ADDS     r0,r0,#0x24
        0x00001fc6:    9904        ..      LDR      r1,[sp,#0x10]
        0x00001fc8:    f7fffd94    ....    BL       vTaskPlaceOnEventList ; 0x1af4
        0x00001fcc:    4620         F      MOV      r0,r4
        0x00001fce:    f7fffad5    ....    BL       prvUnlockQueue ; 0x157c
        0x00001fd2:    f000f93f    ..?.    BL       xTaskResumeAll ; 0x2254
        0x00001fd6:    2800        .(      CMP      r0,#0
        0x00001fd8:    d1a1        ..      BNE      0x1f1e ; xQueueReceive + 54
        0x00001fda:    f7fffc4d    ..M.    BL       vPortYield ; 0x1878
        0x00001fde:    e79e        ..      B        0x1f1e ; xQueueReceive + 54
        0x00001fe0:    4620         F      MOV      r0,r4
        0x00001fe2:    f7fffacb    ....    BL       prvUnlockQueue ; 0x157c
        0x00001fe6:    f000f935    ..5.    BL       xTaskResumeAll ; 0x2254
        0x00001fea:    e798        ..      B        0x1f1e ; xQueueReceive + 54
    i.xTaskCheckForTimeOut
    xTaskCheckForTimeOut
        0x00001fec:    b5f8        ..      PUSH     {r3-r7,lr}
        0x00001fee:    460c        .F      MOV      r4,r1
        0x00001ff0:    0005        ..      MOVS     r5,r0
        0x00001ff2:    d012        ..      BEQ      0x201a ; xTaskCheckForTimeOut + 46
        0x00001ff4:    2c00        .,      CMP      r4,#0
        0x00001ff6:    d012        ..      BEQ      0x201e ; xTaskCheckForTimeOut + 50
        0x00001ff8:    f7fffc02    ....    BL       vPortEnterCritical ; 0x1800
        0x00001ffc:    4e11        .N      LDR      r6,[pc,#68] ; [0x2044] = 0x20000020
        0x00001ffe:    68f1        .h      LDR      r1,[r6,#0xc]
        0x00002000:    686b        kh      LDR      r3,[r5,#4]
        0x00002002:    6820         h      LDR      r0,[r4,#0]
        0x00002004:    1aca        ..      SUBS     r2,r1,r3
        0x00002006:    1c47        G.      ADDS     r7,r0,#1
        0x00002008:    d00b        ..      BEQ      0x2022 ; xTaskCheckForTimeOut + 54
        0x0000200a:    682f        /h      LDR      r7,[r5,#0]
        0x0000200c:    6a36        6j      LDR      r6,[r6,#0x20]
        0x0000200e:    42b7        .B      CMP      r7,r6
        0x00002010:    d00c        ..      BEQ      0x202c ; xTaskCheckForTimeOut + 64
        0x00002012:    428b        .B      CMP      r3,r1
        0x00002014:    d80a        ..      BHI      0x202c ; xTaskCheckForTimeOut + 64
        0x00002016:    2401        .$      MOVS     r4,#1
        0x00002018:    e004        ..      B        0x2024 ; xTaskCheckForTimeOut + 56
        0x0000201a:    b672        r.      CPSID    i
        0x0000201c:    e7fe        ..      B        0x201c ; xTaskCheckForTimeOut + 48
        0x0000201e:    b672        r.      CPSID    i
        0x00002020:    e7fe        ..      B        0x2020 ; xTaskCheckForTimeOut + 52
        0x00002022:    2400        .$      MOVS     r4,#0
        0x00002024:    f7fffbf8    ....    BL       vPortExitCritical ; 0x1818
        0x00002028:    4620         F      MOV      r0,r4
        0x0000202a:    bdf8        ..      POP      {r3-r7,pc}
        0x0000202c:    4290        .B      CMP      r0,r2
        0x0000202e:    d905        ..      BLS      0x203c ; xTaskCheckForTimeOut + 80
        0x00002030:    1a80        ..      SUBS     r0,r0,r2
        0x00002032:    6020         `      STR      r0,[r4,#0]
        0x00002034:    4628        (F      MOV      r0,r5
        0x00002036:    f7fffc91    ....    BL       vTaskInternalSetTimeOutState ; 0x195c
        0x0000203a:    e7f2        ..      B        0x2022 ; xTaskCheckForTimeOut + 54
        0x0000203c:    2000        .       MOVS     r0,#0
        0x0000203e:    6020         `      STR      r0,[r4,#0]
        0x00002040:    e7e9        ..      B        0x2016 ; xTaskCheckForTimeOut + 42
    $d
        0x00002042:    0000        ..      DCW    0
        0x00002044:    20000020     ..     DCD    536870944
    $t
    i.xTaskCreate
    xTaskCreate
        0x00002048:    b5ff        ..      PUSH     {r0-r7,lr}
        0x0000204a:    b085        ..      SUB      sp,sp,#0x14
        0x0000204c:    4616        .F      MOV      r6,r2
        0x0000204e:    0090        ..      LSLS     r0,r2,#2
        0x00002050:    9f0f        ..      LDR      r7,[sp,#0x3c]
        0x00002052:    f7fffacb    ....    BL       pvPortMalloc ; 0x15ec
        0x00002056:    0005        ..      MOVS     r5,r0
        0x00002058:    d01a        ..      BEQ      0x2090 ; xTaskCreate + 72
        0x0000205a:    205c        \       MOVS     r0,#0x5c
        0x0000205c:    f7fffac6    ....    BL       pvPortMalloc ; 0x15ec
        0x00002060:    0004        ..      MOVS     r4,r0
        0x00002062:    d012        ..      BEQ      0x208a ; xTaskCreate + 66
        0x00002064:    6325        %c      STR      r5,[r4,#0x30]
        0x00002066:    2100        .!      MOVS     r1,#0
        0x00002068:    980e        ..      LDR      r0,[sp,#0x38]
        0x0000206a:    9103        ..      STR      r1,[sp,#0xc]
        0x0000206c:    9701        ..      STR      r7,[sp,#4]
        0x0000206e:    9000        ..      STR      r0,[sp,#0]
        0x00002070:    9402        ..      STR      r4,[sp,#8]
        0x00002072:    4632        2F      MOV      r2,r6
        0x00002074:    9b08        ..      LDR      r3,[sp,#0x20]
        0x00002076:    9906        ..      LDR      r1,[sp,#0x18]
        0x00002078:    9805        ..      LDR      r0,[sp,#0x14]
        0x0000207a:    f7fff8ad    ....    BL       prvInitialiseNewTask ; 0x11d8
        0x0000207e:    4620         F      MOV      r0,r4
        0x00002080:    f7feff8a    ....    BL       prvAddNewTaskToReadyList ; 0xf98
        0x00002084:    2001        .       MOVS     r0,#1
        0x00002086:    b009        ..      ADD      sp,sp,#0x24
        0x00002088:    bdf0        ..      POP      {r4-r7,pc}
        0x0000208a:    4628        (F      MOV      r0,r5
        0x0000208c:    f7fffbd2    ....    BL       vPortFree ; 0x1834
        0x00002090:    2000        .       MOVS     r0,#0
        0x00002092:    43c0        .C      MVNS     r0,r0
        0x00002094:    e7f7        ..      B        0x2086 ; xTaskCreate + 62
        0x00002096:    0000        ..      MOVS     r0,r0
    i.xTaskGetSchedulerState
    xTaskGetSchedulerState
        0x00002098:    4806        .H      LDR      r0,[pc,#24] ; [0x20b4] = 0x20000020
        0x0000209a:    6941        Ai      LDR      r1,[r0,#0x14]
        0x0000209c:    2900        .)      CMP      r1,#0
        0x0000209e:    d004        ..      BEQ      0x20aa ; xTaskGetSchedulerState + 18
        0x000020a0:    6b00        .k      LDR      r0,[r0,#0x30]
        0x000020a2:    2800        .(      CMP      r0,#0
        0x000020a4:    d003        ..      BEQ      0x20ae ; xTaskGetSchedulerState + 22
        0x000020a6:    2000        .       MOVS     r0,#0
        0x000020a8:    4770        pG      BX       lr
        0x000020aa:    2001        .       MOVS     r0,#1
        0x000020ac:    4770        pG      BX       lr
        0x000020ae:    2002        .       MOVS     r0,#2
        0x000020b0:    4770        pG      BX       lr
    $d
        0x000020b2:    0000        ..      DCW    0
        0x000020b4:    20000020     ..     DCD    536870944
    $t
    i.xTaskGetTickCount
    xTaskGetTickCount
        0x000020b8:    4801        .H      LDR      r0,[pc,#4] ; [0x20c0] = 0x20000020
        0x000020ba:    68c0        .h      LDR      r0,[r0,#0xc]
        0x000020bc:    4770        pG      BX       lr
    $d
        0x000020be:    0000        ..      DCW    0
        0x000020c0:    20000020     ..     DCD    536870944
    $t
    i.xTaskIncrementTick
    xTaskIncrementTick
        0x000020c4:    b5f8        ..      PUSH     {r3-r7,lr}
        0x000020c6:    4f2f        /O      LDR      r7,[pc,#188] ; [0x2184] = 0x20000020
        0x000020c8:    2600        .&      MOVS     r6,#0
        0x000020ca:    6b38        8k      LDR      r0,[r7,#0x30]
        0x000020cc:    2800        .(      CMP      r0,#0
        0x000020ce:    d003        ..      BEQ      0x20d8 ; xTaskIncrementTick + 20
        0x000020d0:    69b8        .i      LDR      r0,[r7,#0x18]
        0x000020d2:    1c40        @.      ADDS     r0,r0,#1
        0x000020d4:    61b8        .a      STR      r0,[r7,#0x18]
        0x000020d6:    e04d        M.      B        0x2174 ; xTaskIncrementTick + 176
        0x000020d8:    68fd        .h      LDR      r5,[r7,#0xc]
        0x000020da:    1c6d        m.      ADDS     r5,r5,#1
        0x000020dc:    60fd        .`      STR      r5,[r7,#0xc]
        0x000020de:    d10e        ..      BNE      0x20fe ; xTaskIncrementTick + 58
        0x000020e0:    6b78        xk      LDR      r0,[r7,#0x34]
        0x000020e2:    6800        .h      LDR      r0,[r0,#0]
        0x000020e4:    2800        .(      CMP      r0,#0
        0x000020e6:    d001        ..      BEQ      0x20ec ; xTaskIncrementTick + 40
        0x000020e8:    b672        r.      CPSID    i
        0x000020ea:    e7fe        ..      B        0x20ea ; xTaskIncrementTick + 38
        0x000020ec:    6b78        xk      LDR      r0,[r7,#0x34]
        0x000020ee:    6bb9        .k      LDR      r1,[r7,#0x38]
        0x000020f0:    6379        yc      STR      r1,[r7,#0x34]
        0x000020f2:    63b8        .c      STR      r0,[r7,#0x38]
        0x000020f4:    6a38        8j      LDR      r0,[r7,#0x20]
        0x000020f6:    1c40        @.      ADDS     r0,r0,#1
        0x000020f8:    6238        8b      STR      r0,[r7,#0x20]
        0x000020fa:    f7fff9c9    ....    BL       prvResetNextTaskUnblockTime ; 0x1490
        0x000020fe:    6ab8        .j      LDR      r0,[r7,#0x28]
        0x00002100:    4285        .B      CMP      r5,r0
        0x00002102:    d30a        ..      BCC      0x211a ; xTaskIncrementTick + 86
        0x00002104:    6b78        xk      LDR      r0,[r7,#0x34]
        0x00002106:    6800        .h      LDR      r0,[r0,#0]
        0x00002108:    2800        .(      CMP      r0,#0
        0x0000210a:    d013        ..      BEQ      0x2134 ; xTaskIncrementTick + 112
        0x0000210c:    6b78        xk      LDR      r0,[r7,#0x34]
        0x0000210e:    68c0        .h      LDR      r0,[r0,#0xc]
        0x00002110:    68c4        .h      LDR      r4,[r0,#0xc]
        0x00002112:    6860        `h      LDR      r0,[r4,#4]
        0x00002114:    4285        .B      CMP      r5,r0
        0x00002116:    d210        ..      BCS      0x213a ; xTaskIncrementTick + 118
        0x00002118:    62b8        .b      STR      r0,[r7,#0x28]
        0x0000211a:    6838        8h      LDR      r0,[r7,#0]
        0x0000211c:    2114        .!      MOVS     r1,#0x14
        0x0000211e:    6ac0        .j      LDR      r0,[r0,#0x2c]
        0x00002120:    4348        HC      MULS     r0,r1,r0
        0x00002122:    4919        .I      LDR      r1,[pc,#100] ; [0x2188] = 0x200000cc
        0x00002124:    5808        .X      LDR      r0,[r1,r0]
        0x00002126:    2801        .(      CMP      r0,#1
        0x00002128:    d900        ..      BLS      0x212c ; xTaskIncrementTick + 104
        0x0000212a:    2601        .&      MOVS     r6,#1
        0x0000212c:    69b8        .i      LDR      r0,[r7,#0x18]
        0x0000212e:    2800        .(      CMP      r0,#0
        0x00002130:    d020         .      BEQ      0x2174 ; xTaskIncrementTick + 176
        0x00002132:    e021        !.      B        0x2178 ; xTaskIncrementTick + 180
        0x00002134:    2000        .       MOVS     r0,#0
        0x00002136:    43c0        .C      MVNS     r0,r0
        0x00002138:    e7ee        ..      B        0x2118 ; xTaskIncrementTick + 84
        0x0000213a:    1d20         .      ADDS     r0,r4,#4
        0x0000213c:    f7fffb16    ....    BL       uxListRemove ; 0x176c
        0x00002140:    6aa0        .j      LDR      r0,[r4,#0x28]
        0x00002142:    2800        .(      CMP      r0,#0
        0x00002144:    d003        ..      BEQ      0x214e ; xTaskIncrementTick + 138
        0x00002146:    4620         F      MOV      r0,r4
        0x00002148:    3018        .0      ADDS     r0,r0,#0x18
        0x0000214a:    f7fffb0f    ....    BL       uxListRemove ; 0x176c
        0x0000214e:    6ae0        .j      LDR      r0,[r4,#0x2c]
        0x00002150:    6939        9i      LDR      r1,[r7,#0x10]
        0x00002152:    4288        .B      CMP      r0,r1
        0x00002154:    d900        ..      BLS      0x2158 ; xTaskIncrementTick + 148
        0x00002156:    6138        8a      STR      r0,[r7,#0x10]
        0x00002158:    2114        .!      MOVS     r1,#0x14
        0x0000215a:    4348        HC      MULS     r0,r1,r0
        0x0000215c:    490a        .I      LDR      r1,[pc,#40] ; [0x2188] = 0x200000cc
        0x0000215e:    1840        @.      ADDS     r0,r0,r1
        0x00002160:    1d21        !.      ADDS     r1,r4,#4
        0x00002162:    f7fffb41    ..A.    BL       vListInsertEnd ; 0x17e8
        0x00002166:    6ae0        .j      LDR      r0,[r4,#0x2c]
        0x00002168:    6839        9h      LDR      r1,[r7,#0]
        0x0000216a:    6ac9        .j      LDR      r1,[r1,#0x2c]
        0x0000216c:    4288        .B      CMP      r0,r1
        0x0000216e:    d3c9        ..      BCC      0x2104 ; xTaskIncrementTick + 64
        0x00002170:    2601        .&      MOVS     r6,#1
        0x00002172:    e7c7        ..      B        0x2104 ; xTaskIncrementTick + 64
        0x00002174:    f7fffb11    ....    BL       vApplicationTickHook ; 0x179a
        0x00002178:    69f8        .i      LDR      r0,[r7,#0x1c]
        0x0000217a:    2800        .(      CMP      r0,#0
        0x0000217c:    d000        ..      BEQ      0x2180 ; xTaskIncrementTick + 188
        0x0000217e:    2601        .&      MOVS     r6,#1
        0x00002180:    4630        0F      MOV      r0,r6
        0x00002182:    bdf8        ..      POP      {r3-r7,pc}
    $d
        0x00002184:    20000020     ..     DCD    536870944
        0x00002188:    200000cc    ...     DCD    536871116
    $t
    i.xTaskPriorityDisinherit
    xTaskPriorityDisinherit
        0x0000218c:    b570        p.      PUSH     {r4-r6,lr}
        0x0000218e:    4604        .F      MOV      r4,r0
        0x00002190:    2000        .       MOVS     r0,#0
        0x00002192:    2c00        .,      CMP      r4,#0
        0x00002194:    d025        %.      BEQ      0x21e2 ; xTaskPriorityDisinherit + 86
        0x00002196:    4d14        .M      LDR      r5,[pc,#80] ; [0x21e8] = 0x20000020
        0x00002198:    6829        )h      LDR      r1,[r5,#0]
        0x0000219a:    428c        .B      CMP      r4,r1
        0x0000219c:    d001        ..      BEQ      0x21a2 ; xTaskPriorityDisinherit + 22
        0x0000219e:    b672        r.      CPSID    i
        0x000021a0:    e7fe        ..      B        0x21a0 ; xTaskPriorityDisinherit + 20
        0x000021a2:    6d21        !m      LDR      r1,[r4,#0x50]
        0x000021a4:    2900        .)      CMP      r1,#0
        0x000021a6:    d01d        ..      BEQ      0x21e4 ; xTaskPriorityDisinherit + 88
        0x000021a8:    1e49        I.      SUBS     r1,r1,#1
        0x000021aa:    6521        !e      STR      r1,[r4,#0x50]
        0x000021ac:    6ce3        .l      LDR      r3,[r4,#0x4c]
        0x000021ae:    6ae2        .j      LDR      r2,[r4,#0x2c]
        0x000021b0:    429a        .B      CMP      r2,r3
        0x000021b2:    d016        ..      BEQ      0x21e2 ; xTaskPriorityDisinherit + 86
        0x000021b4:    2900        .)      CMP      r1,#0
        0x000021b6:    d114        ..      BNE      0x21e2 ; xTaskPriorityDisinherit + 86
        0x000021b8:    1d20         .      ADDS     r0,r4,#4
        0x000021ba:    f7fffad7    ....    BL       uxListRemove ; 0x176c
        0x000021be:    6ce0        .l      LDR      r0,[r4,#0x4c]
        0x000021c0:    2105        .!      MOVS     r1,#5
        0x000021c2:    62e0        .b      STR      r0,[r4,#0x2c]
        0x000021c4:    1a08        ..      SUBS     r0,r1,r0
        0x000021c6:    61a0        .a      STR      r0,[r4,#0x18]
        0x000021c8:    6ae0        .j      LDR      r0,[r4,#0x2c]
        0x000021ca:    6929        )i      LDR      r1,[r5,#0x10]
        0x000021cc:    4288        .B      CMP      r0,r1
        0x000021ce:    d900        ..      BLS      0x21d2 ; xTaskPriorityDisinherit + 70
        0x000021d0:    6128        (a      STR      r0,[r5,#0x10]
        0x000021d2:    2114        .!      MOVS     r1,#0x14
        0x000021d4:    4348        HC      MULS     r0,r1,r0
        0x000021d6:    4905        .I      LDR      r1,[pc,#20] ; [0x21ec] = 0x200000cc
        0x000021d8:    1840        @.      ADDS     r0,r0,r1
        0x000021da:    1d21        !.      ADDS     r1,r4,#4
        0x000021dc:    f7fffb04    ....    BL       vListInsertEnd ; 0x17e8
        0x000021e0:    2001        .       MOVS     r0,#1
        0x000021e2:    bd70        p.      POP      {r4-r6,pc}
        0x000021e4:    b672        r.      CPSID    i
        0x000021e6:    e7fe        ..      B        0x21e6 ; xTaskPriorityDisinherit + 90
    $d
        0x000021e8:    20000020     ..     DCD    536870944
        0x000021ec:    200000cc    ...     DCD    536871116
    $t
    i.xTaskRemoveFromEventList
    xTaskRemoveFromEventList
        0x000021f0:    b570        p.      PUSH     {r4-r6,lr}
        0x000021f2:    68c0        .h      LDR      r0,[r0,#0xc]
        0x000021f4:    68c4        .h      LDR      r4,[r0,#0xc]
        0x000021f6:    2c00        .,      CMP      r4,#0
        0x000021f8:    d00b        ..      BEQ      0x2212 ; xTaskRemoveFromEventList + 34
        0x000021fa:    4620         F      MOV      r0,r4
        0x000021fc:    3018        .0      ADDS     r0,r0,#0x18
        0x000021fe:    4606        .F      MOV      r6,r0
        0x00002200:    f7fffab4    ....    BL       uxListRemove ; 0x176c
        0x00002204:    4d11        .M      LDR      r5,[pc,#68] ; [0x224c] = 0x20000020
        0x00002206:    6b28        (k      LDR      r0,[r5,#0x30]
        0x00002208:    2800        .(      CMP      r0,#0
        0x0000220a:    d004        ..      BEQ      0x2216 ; xTaskRemoveFromEventList + 38
        0x0000220c:    4631        1F      MOV      r1,r6
        0x0000220e:    4810        .H      LDR      r0,[pc,#64] ; [0x2250] = 0x20000158
        0x00002210:    e00f        ..      B        0x2232 ; xTaskRemoveFromEventList + 66
        0x00002212:    b672        r.      CPSID    i
        0x00002214:    e7fe        ..      B        0x2214 ; xTaskRemoveFromEventList + 36
        0x00002216:    1d20         .      ADDS     r0,r4,#4
        0x00002218:    f7fffaa8    ....    BL       uxListRemove ; 0x176c
        0x0000221c:    6ae0        .j      LDR      r0,[r4,#0x2c]
        0x0000221e:    6929        )i      LDR      r1,[r5,#0x10]
        0x00002220:    4288        .B      CMP      r0,r1
        0x00002222:    d900        ..      BLS      0x2226 ; xTaskRemoveFromEventList + 54
        0x00002224:    6128        (a      STR      r0,[r5,#0x10]
        0x00002226:    2114        .!      MOVS     r1,#0x14
        0x00002228:    4348        HC      MULS     r0,r1,r0
        0x0000222a:    4909        .I      LDR      r1,[pc,#36] ; [0x2250] = 0x20000158
        0x0000222c:    398c        .9      SUBS     r1,r1,#0x8c
        0x0000222e:    1840        @.      ADDS     r0,r0,r1
        0x00002230:    1d21        !.      ADDS     r1,r4,#4
        0x00002232:    f7fffad9    ....    BL       vListInsertEnd ; 0x17e8
        0x00002236:    6ae0        .j      LDR      r0,[r4,#0x2c]
        0x00002238:    6829        )h      LDR      r1,[r5,#0]
        0x0000223a:    6ac9        .j      LDR      r1,[r1,#0x2c]
        0x0000223c:    4288        .B      CMP      r0,r1
        0x0000223e:    d902        ..      BLS      0x2246 ; xTaskRemoveFromEventList + 86
        0x00002240:    2001        .       MOVS     r0,#1
        0x00002242:    61e8        .a      STR      r0,[r5,#0x1c]
        0x00002244:    bd70        p.      POP      {r4-r6,pc}
        0x00002246:    2000        .       MOVS     r0,#0
        0x00002248:    bd70        p.      POP      {r4-r6,pc}
    $d
        0x0000224a:    0000        ..      DCW    0
        0x0000224c:    20000020     ..     DCD    536870944
        0x00002250:    20000158    X..     DCD    536871256
    $t
    i.xTaskResumeAll
    xTaskResumeAll
        0x00002254:    b5f8        ..      PUSH     {r3-r7,lr}
        0x00002256:    4d28        (M      LDR      r5,[pc,#160] ; [0x22f8] = 0x20000020
        0x00002258:    2400        .$      MOVS     r4,#0
        0x0000225a:    6b28        (k      LDR      r0,[r5,#0x30]
        0x0000225c:    4627        'F      MOV      r7,r4
        0x0000225e:    2800        .(      CMP      r0,#0
        0x00002260:    d008        ..      BEQ      0x2274 ; xTaskResumeAll + 32
        0x00002262:    f7fffacd    ....    BL       vPortEnterCritical ; 0x1800
        0x00002266:    6b28        (k      LDR      r0,[r5,#0x30]
        0x00002268:    1e40        @.      SUBS     r0,r0,#1
        0x0000226a:    6328        (c      STR      r0,[r5,#0x30]
        0x0000226c:    6b28        (k      LDR      r0,[r5,#0x30]
        0x0000226e:    2800        .(      CMP      r0,#0
        0x00002270:    d002        ..      BEQ      0x2278 ; xTaskResumeAll + 36
        0x00002272:    e03c        <.      B        0x22ee ; xTaskResumeAll + 154
        0x00002274:    b672        r.      CPSID    i
        0x00002276:    e7fe        ..      B        0x2276 ; xTaskResumeAll + 34
        0x00002278:    68a8        .h      LDR      r0,[r5,#8]
        0x0000227a:    2601        .&      MOVS     r6,#1
        0x0000227c:    2800        .(      CMP      r0,#0
        0x0000227e:    d11b        ..      BNE      0x22b8 ; xTaskResumeAll + 100
        0x00002280:    e035        5.      B        0x22ee ; xTaskResumeAll + 154
        0x00002282:    68c0        .h      LDR      r0,[r0,#0xc]
        0x00002284:    68c4        .h      LDR      r4,[r0,#0xc]
        0x00002286:    4620         F      MOV      r0,r4
        0x00002288:    3018        .0      ADDS     r0,r0,#0x18
        0x0000228a:    f7fffa6f    ..o.    BL       uxListRemove ; 0x176c
        0x0000228e:    1d20         .      ADDS     r0,r4,#4
        0x00002290:    f7fffa6c    ..l.    BL       uxListRemove ; 0x176c
        0x00002294:    6ae0        .j      LDR      r0,[r4,#0x2c]
        0x00002296:    6929        )i      LDR      r1,[r5,#0x10]
        0x00002298:    4288        .B      CMP      r0,r1
        0x0000229a:    d900        ..      BLS      0x229e ; xTaskResumeAll + 74
        0x0000229c:    6128        (a      STR      r0,[r5,#0x10]
        0x0000229e:    2114        .!      MOVS     r1,#0x14
        0x000022a0:    4348        HC      MULS     r0,r1,r0
        0x000022a2:    4916        .I      LDR      r1,[pc,#88] ; [0x22fc] = 0x200000cc
        0x000022a4:    1840        @.      ADDS     r0,r0,r1
        0x000022a6:    1d21        !.      ADDS     r1,r4,#4
        0x000022a8:    f7fffa9e    ....    BL       vListInsertEnd ; 0x17e8
        0x000022ac:    6ae0        .j      LDR      r0,[r4,#0x2c]
        0x000022ae:    6829        )h      LDR      r1,[r5,#0]
        0x000022b0:    6ac9        .j      LDR      r1,[r1,#0x2c]
        0x000022b2:    4288        .B      CMP      r0,r1
        0x000022b4:    d300        ..      BCC      0x22b8 ; xTaskResumeAll + 100
        0x000022b6:    61ee        .a      STR      r6,[r5,#0x1c]
        0x000022b8:    4810        .H      LDR      r0,[pc,#64] ; [0x22fc] = 0x200000cc
        0x000022ba:    308c        .0      ADDS     r0,r0,#0x8c
        0x000022bc:    6801        .h      LDR      r1,[r0,#0]
        0x000022be:    2900        .)      CMP      r1,#0
        0x000022c0:    d1df        ..      BNE      0x2282 ; xTaskResumeAll + 46
        0x000022c2:    2c00        .,      CMP      r4,#0
        0x000022c4:    d001        ..      BEQ      0x22ca ; xTaskResumeAll + 118
        0x000022c6:    f7fff8e3    ....    BL       prvResetNextTaskUnblockTime ; 0x1490
        0x000022ca:    69ac        .i      LDR      r4,[r5,#0x18]
        0x000022cc:    2c00        .,      CMP      r4,#0
        0x000022ce:    d008        ..      BEQ      0x22e2 ; xTaskResumeAll + 142
        0x000022d0:    f7fffef8    ....    BL       xTaskIncrementTick ; 0x20c4
        0x000022d4:    2800        .(      CMP      r0,#0
        0x000022d6:    d000        ..      BEQ      0x22da ; xTaskResumeAll + 134
        0x000022d8:    61ee        .a      STR      r6,[r5,#0x1c]
        0x000022da:    1e64        d.      SUBS     r4,r4,#1
        0x000022dc:    d1f8        ..      BNE      0x22d0 ; xTaskResumeAll + 124
        0x000022de:    2000        .       MOVS     r0,#0
        0x000022e0:    61a8        .a      STR      r0,[r5,#0x18]
        0x000022e2:    69e8        .i      LDR      r0,[r5,#0x1c]
        0x000022e4:    2800        .(      CMP      r0,#0
        0x000022e6:    d002        ..      BEQ      0x22ee ; xTaskResumeAll + 154
        0x000022e8:    2701        .'      MOVS     r7,#1
        0x000022ea:    f7fffac5    ....    BL       vPortYield ; 0x1878
        0x000022ee:    f7fffa93    ....    BL       vPortExitCritical ; 0x1818
        0x000022f2:    4638        8F      MOV      r0,r7
        0x000022f4:    bdf8        ..      POP      {r3-r7,pc}
    $d
        0x000022f6:    0000        ..      DCW    0
        0x000022f8:    20000020     ..     DCD    536870944
        0x000022fc:    200000cc    ...     DCD    536871116
    $t
    i.xTimerCreateTimerTask
    xTimerCreateTimerTask
        0x00002300:    b51c        ..      PUSH     {r2-r4,lr}
        0x00002302:    f7fefea7    ....    BL       prvCheckForValidListAndQueue ; 0x1054
        0x00002306:    480a        .H      LDR      r0,[pc,#40] ; [0x2330] = 0x2000005c
        0x00002308:    6800        .h      LDR      r0,[r0,#0]
        0x0000230a:    2800        .(      CMP      r0,#0
        0x0000230c:    d00c        ..      BEQ      0x2328 ; xTimerCreateTimerTask + 40
        0x0000230e:    4908        .I      LDR      r1,[pc,#32] ; [0x2330] = 0x2000005c
        0x00002310:    2002        .       MOVS     r0,#2
        0x00002312:    1d09        ..      ADDS     r1,r1,#4
        0x00002314:    01c2        ..      LSLS     r2,r0,#7
        0x00002316:    9101        ..      STR      r1,[sp,#4]
        0x00002318:    9000        ..      STR      r0,[sp,#0]
        0x0000231a:    2300        .#      MOVS     r3,#0
        0x0000231c:    a105        ..      ADR      r1,{pc}+0x18 ; 0x2334
        0x0000231e:    4807        .H      LDR      r0,[pc,#28] ; [0x233c] = 0x1551
        0x00002320:    f7fffe92    ....    BL       xTaskCreate ; 0x2048
        0x00002324:    2800        .(      CMP      r0,#0
        0x00002326:    d101        ..      BNE      0x232c ; xTimerCreateTimerTask + 44
        0x00002328:    b672        r.      CPSID    i
        0x0000232a:    e7fe        ..      B        0x232a ; xTimerCreateTimerTask + 42
        0x0000232c:    bd1c        ..      POP      {r2-r4,pc}
    $d
        0x0000232e:    0000        ..      DCW    0
        0x00002330:    2000005c    \..     DCD    536871004
        0x00002334:    20726d54    Tmr     DCD    544370004
        0x00002338:    00637653    Svc.    DCD    6518355
        0x0000233c:    00001551    Q...    DCD    5457
    $t
    i.xTimerGenericCommand
    xTimerGenericCommand
        0x00002340:    b5fe        ..      PUSH     {r1-r7,lr}
        0x00002342:    461d        .F      MOV      r5,r3
        0x00002344:    4603        .F      MOV      r3,r0
        0x00002346:    2000        .       MOVS     r0,#0
        0x00002348:    9e08        ..      LDR      r6,[sp,#0x20]
        0x0000234a:    2b00        .+      CMP      r3,#0
        0x0000234c:    d012        ..      BEQ      0x2374 ; xTimerGenericCommand + 52
        0x0000234e:    4c0f        .L      LDR      r4,[pc,#60] ; [0x238c] = 0x2000005c
        0x00002350:    6827        'h      LDR      r7,[r4,#0]
        0x00002352:    2f00        ./      CMP      r7,#0
        0x00002354:    d00d        ..      BEQ      0x2372 ; xTimerGenericCommand + 50
        0x00002356:    4668        hF      MOV      r0,sp
        0x00002358:    c00e        ..      STM      r0!,{r1-r3}
        0x0000235a:    2906        .)      CMP      r1,#6
        0x0000235c:    da0f        ..      BGE      0x237e ; xTimerGenericCommand + 62
        0x0000235e:    f7fffe9b    ....    BL       xTaskGetSchedulerState ; 0x2098
        0x00002362:    2802        .(      CMP      r0,#2
        0x00002364:    d008        ..      BEQ      0x2378 ; xTimerGenericCommand + 56
        0x00002366:    2300        .#      MOVS     r3,#0
        0x00002368:    461a        .F      MOV      r2,r3
        0x0000236a:    4669        iF      MOV      r1,sp
        0x0000236c:    6820         h      LDR      r0,[r4,#0]
        0x0000236e:    f7fffce6    ....    BL       xQueueGenericSend ; 0x1d3e
        0x00002372:    bdfe        ..      POP      {r1-r7,pc}
        0x00002374:    b672        r.      CPSID    i
        0x00002376:    e7fe        ..      B        0x2376 ; xTimerGenericCommand + 54
        0x00002378:    2300        .#      MOVS     r3,#0
        0x0000237a:    4632        2F      MOV      r2,r6
        0x0000237c:    e7f5        ..      B        0x236a ; xTimerGenericCommand + 42
        0x0000237e:    2300        .#      MOVS     r3,#0
        0x00002380:    462a        *F      MOV      r2,r5
        0x00002382:    4669        iF      MOV      r1,sp
        0x00002384:    4638        8F      MOV      r0,r7
        0x00002386:    f7fffd69    ..i.    BL       xQueueGenericSendFromISR ; 0x1e5c
        0x0000238a:    bdfe        ..      POP      {r1-r7,pc}
    $d
        0x0000238c:    2000005c    \..     DCD    536871004
    $d.realdata
    .constdata
    gau32ClkSrcTbl
        0x00002390:    01e84800    .H..    DCD    32000000
        0x00002394:    00008000    ....    DCD    32768
        0x00002398:    05b8d800    ....    DCD    96000000
        0x0000239c:    00009600    ....    DCD    38400
        0x000023a0:    02dc6c00    .l..    DCD    48000000
        0x000023a4:    00000000    ....    DCD    0
        0x000023a8:    00000000    ....    DCD    0
        0x000023ac:    02dc6c00    .l..    DCD    48000000
    .constdata
        0x000023b0:    01e84800    .H..    DCD    32000000
        0x000023b4:    00000000    ....    DCD    0
        0x000023b8:    00008000    ....    DCD    32768
        0x000023bc:    02dc6c00    .l..    DCD    48000000
        0x000023c0:    00000000    ....    DCD    0
        0x000023c4:    00009600    ....    DCD    38400
        0x000023c8:    01e84800    .H..    DCD    32000000
        0x000023cc:    00000000    ....    DCD    0
        0x000023d0:    00008000    ....    DCD    32768
        0x000023d4:    02dc6c00    .l..    DCD    48000000
        0x000023d8:    00000000    ....    DCD    0
        0x000023dc:    00009600    ....    DCD    38400
        0x000023e0:    01e84800    .H..    DCD    32000000
        0x000023e4:    00000000    ....    DCD    0
        0x000023e8:    00008000    ....    DCD    32768
        0x000023ec:    02dc6c00    .l..    DCD    48000000
        0x000023f0:    00000000    ....    DCD    0
        0x000023f4:    00009600    ....    DCD    38400
    .constdata
        0x000023f8:    00000000    ....    DCD    0
        0x000023fc:    00000004    ....    DCD    4
        0x00002400:    00000008    ....    DCD    8
        0x00002404:    0000000c    ....    DCD    12
        0x00002408:    00000000    ....    DCD    0
        0x0000240c:    00000000    ....    DCD    0
        0x00002410:    00000000    ....    DCD    0
        0x00002414:    00000010    ....    DCD    16
        0x00002418:    00000000    ....    DCD    0
        0x0000241c:    00000004    ....    DCD    4
        0x00002420:    00000008    ....    DCD    8
        0x00002424:    00000000    ....    DCD    0
        0x00002428:    00000004    ....    DCD    4
        0x0000242c:    00000008    ....    DCD    8
    .constdata
        0x00002430:    01e84800    .H..    DCD    32000000
        0x00002434:    00008000    ....    DCD    32768
        0x00002438:    00000000    ....    DCD    0
        0x0000243c:    00000000    ....    DCD    0
        0x00002440:    00000000    ....    DCD    0
        0x00002444:    00009600    ....    DCD    38400
        0x00002448:    00000000    ....    DCD    0
        0x0000244c:    02dc6c00    .l..    DCD    48000000
    Region$$Table$$Base
        0x00002450:    00002470    p$..    DCD    9328
        0x00002454:    20000000    ...     DCD    536870912
        0x00002458:    0000008c    ....    DCD    140
        0x0000245c:    00000a2a    *...    DCD    2602
        0x00002460:    000024fc    .$..    DCD    9468
        0x00002464:    2000008c    ...     DCD    536871052
        0x00002468:    00002b34    4+..    DCD    11060
        0x0000246c:    00000a3a    :...    DCD    2618
    Region$$Table$$Limit

** Section #2 'ER_RW' (SHT_PROGBITS) [SHF_ALLOC + SHF_WRITE]
    Size   : 140 bytes (alignment 4)
    Address: 0x20000000


** Section #3 'ER_ZI' (SHT_NOBITS) [SHF_ALLOC + SHF_WRITE]
    Size   : 11060 bytes (alignment 8)
    Address: 0x2000008c


** Section #4 '.debug_abbrev' (SHT_PROGBITS)
    Size   : 1476 bytes


** Section #5 '.debug_frame' (SHT_PROGBITS)
    Size   : 3372 bytes


** Section #6 '.debug_info' (SHT_PROGBITS)
    Size   : 52416 bytes


** Section #7 '.debug_line' (SHT_PROGBITS)
    Size   : 19944 bytes


** Section #8 '.debug_loc' (SHT_PROGBITS)
    Size   : 8844 bytes


** Section #9 '.debug_macinfo' (SHT_PROGBITS)
    Size   : 86748 bytes


** Section #10 '.debug_pubnames' (SHT_PROGBITS)
    Size   : 3006 bytes


** Section #11 '.symtab' (SHT_SYMTAB)
    Size   : 10464 bytes (alignment 4)
    String table #12 '.strtab'
    Last local symbol no. 465


** Section #12 '.strtab' (SHT_STRTAB)
    Size   : 9884 bytes


** Section #13 '.note' (SHT_NOTE)
    Size   : 28 bytes (alignment 4)


** Section #14 '.comment' (SHT_PROGBITS)
    Size   : 39264 bytes


** Section #15 '.shstrtab' (SHT_STRTAB)
    Size   : 156 bytes


